ARM GAS  /tmp/cc6QWq81.s 			page 1


   1              		.cpu cortex-m0plus
   2              		.arch armv6s-m
   3              		.fpu softvfp
   4              		.eabi_attribute 20, 1
   5              		.eabi_attribute 21, 1
   6              		.eabi_attribute 23, 3
   7              		.eabi_attribute 24, 1
   8              		.eabi_attribute 25, 1
   9              		.eabi_attribute 26, 1
  10              		.eabi_attribute 30, 1
  11              		.eabi_attribute 34, 0
  12              		.eabi_attribute 18, 4
  13              		.file	"stm32l0xx_hal_rcc_ex.c"
  14              		.text
  15              	.Ltext0:
  16              		.cfi_sections	.debug_frame
  17              		.section	.text.HAL_RCCEx_PeriphCLKConfig,"ax",%progbits
  18              		.align	1
  19              		.global	HAL_RCCEx_PeriphCLKConfig
  20              		.syntax unified
  21              		.code	16
  22              		.thumb_func
  24              	HAL_RCCEx_PeriphCLKConfig:
  25              	.LVL0:
  26              	.LFB47:
  27              		.file 1 "Drivers/STM32L0xx_HAL_Driver/Src/stm32l0xx_hal_rcc_ex.c"
   1:Drivers/STM32L0xx_HAL_Driver/Src/stm32l0xx_hal_rcc_ex.c **** /**
   2:Drivers/STM32L0xx_HAL_Driver/Src/stm32l0xx_hal_rcc_ex.c ****   ******************************************************************************
   3:Drivers/STM32L0xx_HAL_Driver/Src/stm32l0xx_hal_rcc_ex.c ****   * @file    stm32l0xx_hal_rcc_ex.c
   4:Drivers/STM32L0xx_HAL_Driver/Src/stm32l0xx_hal_rcc_ex.c ****   * @author  MCD Application Team
   5:Drivers/STM32L0xx_HAL_Driver/Src/stm32l0xx_hal_rcc_ex.c ****   * @brief   Extended RCC HAL module driver.
   6:Drivers/STM32L0xx_HAL_Driver/Src/stm32l0xx_hal_rcc_ex.c ****   *          This file provides firmware functions to manage the following
   7:Drivers/STM32L0xx_HAL_Driver/Src/stm32l0xx_hal_rcc_ex.c ****   *          functionalities RCC extension peripheral:
   8:Drivers/STM32L0xx_HAL_Driver/Src/stm32l0xx_hal_rcc_ex.c ****   *           + Extended Peripheral Control functions
   9:Drivers/STM32L0xx_HAL_Driver/Src/stm32l0xx_hal_rcc_ex.c ****   *           + Extended Clock Recovery System Control functions
  10:Drivers/STM32L0xx_HAL_Driver/Src/stm32l0xx_hal_rcc_ex.c ****   *
  11:Drivers/STM32L0xx_HAL_Driver/Src/stm32l0xx_hal_rcc_ex.c ****   ******************************************************************************
  12:Drivers/STM32L0xx_HAL_Driver/Src/stm32l0xx_hal_rcc_ex.c ****   * @attention
  13:Drivers/STM32L0xx_HAL_Driver/Src/stm32l0xx_hal_rcc_ex.c ****   *
  14:Drivers/STM32L0xx_HAL_Driver/Src/stm32l0xx_hal_rcc_ex.c ****   * Copyright (c) 2016 STMicroelectronics.
  15:Drivers/STM32L0xx_HAL_Driver/Src/stm32l0xx_hal_rcc_ex.c ****   * All rights reserved.
  16:Drivers/STM32L0xx_HAL_Driver/Src/stm32l0xx_hal_rcc_ex.c ****   *
  17:Drivers/STM32L0xx_HAL_Driver/Src/stm32l0xx_hal_rcc_ex.c ****   * This software is licensed under terms that can be found in the LICENSE file in
  18:Drivers/STM32L0xx_HAL_Driver/Src/stm32l0xx_hal_rcc_ex.c ****   * the root directory of this software component.
  19:Drivers/STM32L0xx_HAL_Driver/Src/stm32l0xx_hal_rcc_ex.c ****   * If no LICENSE file comes with this software, it is provided AS-IS.
  20:Drivers/STM32L0xx_HAL_Driver/Src/stm32l0xx_hal_rcc_ex.c ****   ******************************************************************************
  21:Drivers/STM32L0xx_HAL_Driver/Src/stm32l0xx_hal_rcc_ex.c ****   */
  22:Drivers/STM32L0xx_HAL_Driver/Src/stm32l0xx_hal_rcc_ex.c **** 
  23:Drivers/STM32L0xx_HAL_Driver/Src/stm32l0xx_hal_rcc_ex.c **** /* Includes ------------------------------------------------------------------*/
  24:Drivers/STM32L0xx_HAL_Driver/Src/stm32l0xx_hal_rcc_ex.c **** #include "stm32l0xx_hal.h"
  25:Drivers/STM32L0xx_HAL_Driver/Src/stm32l0xx_hal_rcc_ex.c **** 
  26:Drivers/STM32L0xx_HAL_Driver/Src/stm32l0xx_hal_rcc_ex.c **** /** @addtogroup STM32L0xx_HAL_Driver
  27:Drivers/STM32L0xx_HAL_Driver/Src/stm32l0xx_hal_rcc_ex.c ****   * @{
  28:Drivers/STM32L0xx_HAL_Driver/Src/stm32l0xx_hal_rcc_ex.c ****   */
  29:Drivers/STM32L0xx_HAL_Driver/Src/stm32l0xx_hal_rcc_ex.c **** 
  30:Drivers/STM32L0xx_HAL_Driver/Src/stm32l0xx_hal_rcc_ex.c **** #ifdef HAL_RCC_MODULE_ENABLED
  31:Drivers/STM32L0xx_HAL_Driver/Src/stm32l0xx_hal_rcc_ex.c **** 
ARM GAS  /tmp/cc6QWq81.s 			page 2


  32:Drivers/STM32L0xx_HAL_Driver/Src/stm32l0xx_hal_rcc_ex.c **** /** @defgroup RCCEx RCCEx
  33:Drivers/STM32L0xx_HAL_Driver/Src/stm32l0xx_hal_rcc_ex.c ****   * @brief RCC Extension HAL module driver
  34:Drivers/STM32L0xx_HAL_Driver/Src/stm32l0xx_hal_rcc_ex.c ****   * @{
  35:Drivers/STM32L0xx_HAL_Driver/Src/stm32l0xx_hal_rcc_ex.c ****   */
  36:Drivers/STM32L0xx_HAL_Driver/Src/stm32l0xx_hal_rcc_ex.c **** 
  37:Drivers/STM32L0xx_HAL_Driver/Src/stm32l0xx_hal_rcc_ex.c **** /* Private typedef -----------------------------------------------------------*/
  38:Drivers/STM32L0xx_HAL_Driver/Src/stm32l0xx_hal_rcc_ex.c **** /* Private define ------------------------------------------------------------*/
  39:Drivers/STM32L0xx_HAL_Driver/Src/stm32l0xx_hal_rcc_ex.c **** /** @defgroup RCCEx_Private_Constants RCCEx Private Constants
  40:Drivers/STM32L0xx_HAL_Driver/Src/stm32l0xx_hal_rcc_ex.c ****   * @{
  41:Drivers/STM32L0xx_HAL_Driver/Src/stm32l0xx_hal_rcc_ex.c ****   */
  42:Drivers/STM32L0xx_HAL_Driver/Src/stm32l0xx_hal_rcc_ex.c **** #if defined(USB)
  43:Drivers/STM32L0xx_HAL_Driver/Src/stm32l0xx_hal_rcc_ex.c **** extern const uint8_t PLLMulTable[];
  44:Drivers/STM32L0xx_HAL_Driver/Src/stm32l0xx_hal_rcc_ex.c **** #endif /* USB */
  45:Drivers/STM32L0xx_HAL_Driver/Src/stm32l0xx_hal_rcc_ex.c **** /**
  46:Drivers/STM32L0xx_HAL_Driver/Src/stm32l0xx_hal_rcc_ex.c ****   * @}
  47:Drivers/STM32L0xx_HAL_Driver/Src/stm32l0xx_hal_rcc_ex.c ****   */
  48:Drivers/STM32L0xx_HAL_Driver/Src/stm32l0xx_hal_rcc_ex.c **** 
  49:Drivers/STM32L0xx_HAL_Driver/Src/stm32l0xx_hal_rcc_ex.c **** /* Private macro -------------------------------------------------------------*/
  50:Drivers/STM32L0xx_HAL_Driver/Src/stm32l0xx_hal_rcc_ex.c **** /** @defgroup RCCEx_Private_Macros RCCEx Private Macros
  51:Drivers/STM32L0xx_HAL_Driver/Src/stm32l0xx_hal_rcc_ex.c ****   * @{
  52:Drivers/STM32L0xx_HAL_Driver/Src/stm32l0xx_hal_rcc_ex.c ****   */
  53:Drivers/STM32L0xx_HAL_Driver/Src/stm32l0xx_hal_rcc_ex.c **** /**
  54:Drivers/STM32L0xx_HAL_Driver/Src/stm32l0xx_hal_rcc_ex.c ****   * @}
  55:Drivers/STM32L0xx_HAL_Driver/Src/stm32l0xx_hal_rcc_ex.c ****   */
  56:Drivers/STM32L0xx_HAL_Driver/Src/stm32l0xx_hal_rcc_ex.c **** 
  57:Drivers/STM32L0xx_HAL_Driver/Src/stm32l0xx_hal_rcc_ex.c **** /* Private variables ---------------------------------------------------------*/
  58:Drivers/STM32L0xx_HAL_Driver/Src/stm32l0xx_hal_rcc_ex.c **** /* Private function prototypes -----------------------------------------------*/
  59:Drivers/STM32L0xx_HAL_Driver/Src/stm32l0xx_hal_rcc_ex.c **** /* Private functions ---------------------------------------------------------*/
  60:Drivers/STM32L0xx_HAL_Driver/Src/stm32l0xx_hal_rcc_ex.c **** 
  61:Drivers/STM32L0xx_HAL_Driver/Src/stm32l0xx_hal_rcc_ex.c **** /** @defgroup RCCEx_Exported_Functions RCCEx Exported Functions
  62:Drivers/STM32L0xx_HAL_Driver/Src/stm32l0xx_hal_rcc_ex.c ****   * @{
  63:Drivers/STM32L0xx_HAL_Driver/Src/stm32l0xx_hal_rcc_ex.c ****   */
  64:Drivers/STM32L0xx_HAL_Driver/Src/stm32l0xx_hal_rcc_ex.c **** 
  65:Drivers/STM32L0xx_HAL_Driver/Src/stm32l0xx_hal_rcc_ex.c **** /** @defgroup RCCEx_Exported_Functions_Group1 Extended Peripheral Control functions
  66:Drivers/STM32L0xx_HAL_Driver/Src/stm32l0xx_hal_rcc_ex.c ****  *  @brief  Extended Peripheral Control functions
  67:Drivers/STM32L0xx_HAL_Driver/Src/stm32l0xx_hal_rcc_ex.c ****  *
  68:Drivers/STM32L0xx_HAL_Driver/Src/stm32l0xx_hal_rcc_ex.c **** @verbatim
  69:Drivers/STM32L0xx_HAL_Driver/Src/stm32l0xx_hal_rcc_ex.c ****  ===============================================================================
  70:Drivers/STM32L0xx_HAL_Driver/Src/stm32l0xx_hal_rcc_ex.c ****                 ##### Extended Peripheral Control functions  #####
  71:Drivers/STM32L0xx_HAL_Driver/Src/stm32l0xx_hal_rcc_ex.c ****  ===============================================================================
  72:Drivers/STM32L0xx_HAL_Driver/Src/stm32l0xx_hal_rcc_ex.c ****     [..]
  73:Drivers/STM32L0xx_HAL_Driver/Src/stm32l0xx_hal_rcc_ex.c ****     This subsection provides a set of functions allowing to control the RCC Clocks
  74:Drivers/STM32L0xx_HAL_Driver/Src/stm32l0xx_hal_rcc_ex.c ****     frequencies.
  75:Drivers/STM32L0xx_HAL_Driver/Src/stm32l0xx_hal_rcc_ex.c ****     [..]
  76:Drivers/STM32L0xx_HAL_Driver/Src/stm32l0xx_hal_rcc_ex.c ****     (@) Important note: Care must be taken when HAL_RCCEx_PeriphCLKConfig() is used to
  77:Drivers/STM32L0xx_HAL_Driver/Src/stm32l0xx_hal_rcc_ex.c ****         select the RTC clock source; in this case the Backup domain will be reset in
  78:Drivers/STM32L0xx_HAL_Driver/Src/stm32l0xx_hal_rcc_ex.c ****         order to modify the RTC Clock source, as consequence RTC registers (including
  79:Drivers/STM32L0xx_HAL_Driver/Src/stm32l0xx_hal_rcc_ex.c ****         the backup registers) are set to their reset values.
  80:Drivers/STM32L0xx_HAL_Driver/Src/stm32l0xx_hal_rcc_ex.c **** 
  81:Drivers/STM32L0xx_HAL_Driver/Src/stm32l0xx_hal_rcc_ex.c **** @endverbatim
  82:Drivers/STM32L0xx_HAL_Driver/Src/stm32l0xx_hal_rcc_ex.c ****   * @{
  83:Drivers/STM32L0xx_HAL_Driver/Src/stm32l0xx_hal_rcc_ex.c ****   */
  84:Drivers/STM32L0xx_HAL_Driver/Src/stm32l0xx_hal_rcc_ex.c **** 
  85:Drivers/STM32L0xx_HAL_Driver/Src/stm32l0xx_hal_rcc_ex.c **** /**
  86:Drivers/STM32L0xx_HAL_Driver/Src/stm32l0xx_hal_rcc_ex.c ****   * @brief  Initializes the RCC extended peripherals clocks according to the specified
  87:Drivers/STM32L0xx_HAL_Driver/Src/stm32l0xx_hal_rcc_ex.c ****   *         parameters in the RCC_PeriphCLKInitTypeDef.
  88:Drivers/STM32L0xx_HAL_Driver/Src/stm32l0xx_hal_rcc_ex.c ****   * @param  PeriphClkInit pointer to an RCC_PeriphCLKInitTypeDef structure that
ARM GAS  /tmp/cc6QWq81.s 			page 3


  89:Drivers/STM32L0xx_HAL_Driver/Src/stm32l0xx_hal_rcc_ex.c ****   *         contains the configuration information for the Extended Peripherals clocks(USART1,USART
  90:Drivers/STM32L0xx_HAL_Driver/Src/stm32l0xx_hal_rcc_ex.c ****   *         I2C1, I2C3, RTC, USB/RNG  and LPTIM1 clocks).
  91:Drivers/STM32L0xx_HAL_Driver/Src/stm32l0xx_hal_rcc_ex.c ****   * @retval HAL status
  92:Drivers/STM32L0xx_HAL_Driver/Src/stm32l0xx_hal_rcc_ex.c ****   * @note   If HAL_ERROR returned, first switch-OFF HSE clock oscillator with @ref HAL_RCC_OscConfi
  93:Drivers/STM32L0xx_HAL_Driver/Src/stm32l0xx_hal_rcc_ex.c ****   *         to possibly update HSE divider.
  94:Drivers/STM32L0xx_HAL_Driver/Src/stm32l0xx_hal_rcc_ex.c ****   */
  95:Drivers/STM32L0xx_HAL_Driver/Src/stm32l0xx_hal_rcc_ex.c **** HAL_StatusTypeDef HAL_RCCEx_PeriphCLKConfig(RCC_PeriphCLKInitTypeDef  *PeriphClkInit)
  96:Drivers/STM32L0xx_HAL_Driver/Src/stm32l0xx_hal_rcc_ex.c **** {
  28              		.loc 1 96 1 view -0
  29              		.cfi_startproc
  30              		@ args = 0, pretend = 0, frame = 0
  31              		@ frame_needed = 0, uses_anonymous_args = 0
  32              		.loc 1 96 1 is_stmt 0 view .LVU1
  33 0000 70B5     		push	{r4, r5, r6, lr}
  34              	.LCFI0:
  35              		.cfi_def_cfa_offset 16
  36              		.cfi_offset 4, -16
  37              		.cfi_offset 5, -12
  38              		.cfi_offset 6, -8
  39              		.cfi_offset 14, -4
  40 0002 0400     		movs	r4, r0
  97:Drivers/STM32L0xx_HAL_Driver/Src/stm32l0xx_hal_rcc_ex.c ****   uint32_t tickstart;
  41              		.loc 1 97 3 is_stmt 1 view .LVU2
  98:Drivers/STM32L0xx_HAL_Driver/Src/stm32l0xx_hal_rcc_ex.c ****   uint32_t temp_reg;
  42              		.loc 1 98 3 view .LVU3
  99:Drivers/STM32L0xx_HAL_Driver/Src/stm32l0xx_hal_rcc_ex.c ****   FlagStatus       pwrclkchanged = RESET;
  43              		.loc 1 99 3 view .LVU4
  44              	.LVL1:
 100:Drivers/STM32L0xx_HAL_Driver/Src/stm32l0xx_hal_rcc_ex.c **** 
 101:Drivers/STM32L0xx_HAL_Driver/Src/stm32l0xx_hal_rcc_ex.c ****   /* Check the parameters */
 102:Drivers/STM32L0xx_HAL_Driver/Src/stm32l0xx_hal_rcc_ex.c ****   assert_param(IS_RCC_PERIPHCLOCK(PeriphClkInit->PeriphClockSelection));
  45              		.loc 1 102 3 view .LVU5
 103:Drivers/STM32L0xx_HAL_Driver/Src/stm32l0xx_hal_rcc_ex.c **** 
 104:Drivers/STM32L0xx_HAL_Driver/Src/stm32l0xx_hal_rcc_ex.c ****   /*------------------------------- RTC/LCD Configuration ------------------------*/
 105:Drivers/STM32L0xx_HAL_Driver/Src/stm32l0xx_hal_rcc_ex.c ****   if ((((PeriphClkInit->PeriphClockSelection) & RCC_PERIPHCLK_RTC) == RCC_PERIPHCLK_RTC)
  46              		.loc 1 105 3 view .LVU6
 106:Drivers/STM32L0xx_HAL_Driver/Src/stm32l0xx_hal_rcc_ex.c **** #if defined(LCD)
 107:Drivers/STM32L0xx_HAL_Driver/Src/stm32l0xx_hal_rcc_ex.c ****    || (((PeriphClkInit->PeriphClockSelection) & RCC_PERIPHCLK_LCD) == RCC_PERIPHCLK_LCD)
  47              		.loc 1 107 4 is_stmt 0 view .LVU7
  48 0004 0268     		ldr	r2, [r0]
  49 0006 8223     		movs	r3, #130
  50 0008 1B01     		lsls	r3, r3, #4
 105:Drivers/STM32L0xx_HAL_Driver/Src/stm32l0xx_hal_rcc_ex.c **** #if defined(LCD)
  51              		.loc 1 105 6 view .LVU8
  52 000a 1A42     		tst	r2, r3
  53 000c 72D0     		beq	.L2
 108:Drivers/STM32L0xx_HAL_Driver/Src/stm32l0xx_hal_rcc_ex.c **** #endif /* LCD */
 109:Drivers/STM32L0xx_HAL_Driver/Src/stm32l0xx_hal_rcc_ex.c ****      )
 110:Drivers/STM32L0xx_HAL_Driver/Src/stm32l0xx_hal_rcc_ex.c ****   {
 111:Drivers/STM32L0xx_HAL_Driver/Src/stm32l0xx_hal_rcc_ex.c ****     /* check for RTC Parameters used to output RTCCLK */
 112:Drivers/STM32L0xx_HAL_Driver/Src/stm32l0xx_hal_rcc_ex.c ****     if(((PeriphClkInit->PeriphClockSelection) & RCC_PERIPHCLK_RTC) == RCC_PERIPHCLK_RTC)
  54              		.loc 1 112 5 is_stmt 1 view .LVU9
 113:Drivers/STM32L0xx_HAL_Driver/Src/stm32l0xx_hal_rcc_ex.c ****     {
 114:Drivers/STM32L0xx_HAL_Driver/Src/stm32l0xx_hal_rcc_ex.c ****       assert_param(IS_RCC_RTCCLKSOURCE(PeriphClkInit->RTCClockSelection));
  55              		.loc 1 114 7 view .LVU10
 115:Drivers/STM32L0xx_HAL_Driver/Src/stm32l0xx_hal_rcc_ex.c ****     }
 116:Drivers/STM32L0xx_HAL_Driver/Src/stm32l0xx_hal_rcc_ex.c **** 
ARM GAS  /tmp/cc6QWq81.s 			page 4


 117:Drivers/STM32L0xx_HAL_Driver/Src/stm32l0xx_hal_rcc_ex.c **** #if defined(LCD)
 118:Drivers/STM32L0xx_HAL_Driver/Src/stm32l0xx_hal_rcc_ex.c ****     if(((PeriphClkInit->PeriphClockSelection) & RCC_PERIPHCLK_LCD) == RCC_PERIPHCLK_LCD)
  56              		.loc 1 118 5 view .LVU11
 119:Drivers/STM32L0xx_HAL_Driver/Src/stm32l0xx_hal_rcc_ex.c ****     {
 120:Drivers/STM32L0xx_HAL_Driver/Src/stm32l0xx_hal_rcc_ex.c ****       assert_param(IS_RCC_RTCCLKSOURCE(PeriphClkInit->LCDClockSelection));
  57              		.loc 1 120 7 view .LVU12
 121:Drivers/STM32L0xx_HAL_Driver/Src/stm32l0xx_hal_rcc_ex.c ****     }
 122:Drivers/STM32L0xx_HAL_Driver/Src/stm32l0xx_hal_rcc_ex.c **** #endif /* LCD */
 123:Drivers/STM32L0xx_HAL_Driver/Src/stm32l0xx_hal_rcc_ex.c **** 
 124:Drivers/STM32L0xx_HAL_Driver/Src/stm32l0xx_hal_rcc_ex.c ****     /* As soon as function is called to change RTC clock source, activation of the
 125:Drivers/STM32L0xx_HAL_Driver/Src/stm32l0xx_hal_rcc_ex.c ****        power domain is done. */
 126:Drivers/STM32L0xx_HAL_Driver/Src/stm32l0xx_hal_rcc_ex.c ****     /* Requires to enable write access to Backup Domain of necessary */
 127:Drivers/STM32L0xx_HAL_Driver/Src/stm32l0xx_hal_rcc_ex.c ****     if(__HAL_RCC_PWR_IS_CLK_DISABLED())
  58              		.loc 1 127 5 view .LVU13
  59              		.loc 1 127 8 is_stmt 0 view .LVU14
  60 000e 814B     		ldr	r3, .L47
  61 0010 9B6B     		ldr	r3, [r3, #56]
  62              		.loc 1 127 7 view .LVU15
  63 0012 DB00     		lsls	r3, r3, #3
  64 0014 00D5     		bpl	.LCB35
  65 0016 ABE0     		b	.L24	@long jump
  66              	.LCB35:
 128:Drivers/STM32L0xx_HAL_Driver/Src/stm32l0xx_hal_rcc_ex.c ****     {
 129:Drivers/STM32L0xx_HAL_Driver/Src/stm32l0xx_hal_rcc_ex.c ****       __HAL_RCC_PWR_CLK_ENABLE();
  67              		.loc 1 129 7 is_stmt 1 view .LVU16
  68 0018 7E4A     		ldr	r2, .L47
  69 001a 916B     		ldr	r1, [r2, #56]
  70 001c 8023     		movs	r3, #128
  71 001e 5B05     		lsls	r3, r3, #21
  72 0020 0B43     		orrs	r3, r1
  73 0022 9363     		str	r3, [r2, #56]
 130:Drivers/STM32L0xx_HAL_Driver/Src/stm32l0xx_hal_rcc_ex.c ****       pwrclkchanged = SET;
  74              		.loc 1 130 7 view .LVU17
  75              	.LVL2:
  76              		.loc 1 130 21 is_stmt 0 view .LVU18
  77 0024 0125     		movs	r5, #1
  78              	.LVL3:
  79              	.L3:
 131:Drivers/STM32L0xx_HAL_Driver/Src/stm32l0xx_hal_rcc_ex.c ****     }
 132:Drivers/STM32L0xx_HAL_Driver/Src/stm32l0xx_hal_rcc_ex.c **** 
 133:Drivers/STM32L0xx_HAL_Driver/Src/stm32l0xx_hal_rcc_ex.c ****     if(HAL_IS_BIT_CLR(PWR->CR, PWR_CR_DBP))
  80              		.loc 1 133 5 is_stmt 1 view .LVU19
  81              		.loc 1 133 8 is_stmt 0 view .LVU20
  82 0026 7C4B     		ldr	r3, .L47+4
  83 0028 1B68     		ldr	r3, [r3]
  84              		.loc 1 133 7 view .LVU21
  85 002a DB05     		lsls	r3, r3, #23
  86 002c 00D4     		bmi	.LCB56
  87 002e A1E0     		b	.L40	@long jump
  88              	.LCB56:
  89              	.LVL4:
  90              	.L4:
 134:Drivers/STM32L0xx_HAL_Driver/Src/stm32l0xx_hal_rcc_ex.c ****     {
 135:Drivers/STM32L0xx_HAL_Driver/Src/stm32l0xx_hal_rcc_ex.c ****       /* Enable write access to Backup domain */
 136:Drivers/STM32L0xx_HAL_Driver/Src/stm32l0xx_hal_rcc_ex.c ****       SET_BIT(PWR->CR, PWR_CR_DBP);
 137:Drivers/STM32L0xx_HAL_Driver/Src/stm32l0xx_hal_rcc_ex.c **** 
 138:Drivers/STM32L0xx_HAL_Driver/Src/stm32l0xx_hal_rcc_ex.c ****       /* Wait for Backup domain Write protection disable */
ARM GAS  /tmp/cc6QWq81.s 			page 5


 139:Drivers/STM32L0xx_HAL_Driver/Src/stm32l0xx_hal_rcc_ex.c ****       tickstart = HAL_GetTick();
 140:Drivers/STM32L0xx_HAL_Driver/Src/stm32l0xx_hal_rcc_ex.c **** 
 141:Drivers/STM32L0xx_HAL_Driver/Src/stm32l0xx_hal_rcc_ex.c ****       while(HAL_IS_BIT_CLR(PWR->CR, PWR_CR_DBP))
 142:Drivers/STM32L0xx_HAL_Driver/Src/stm32l0xx_hal_rcc_ex.c ****       {
 143:Drivers/STM32L0xx_HAL_Driver/Src/stm32l0xx_hal_rcc_ex.c ****         if((HAL_GetTick() - tickstart) > RCC_DBP_TIMEOUT_VALUE)
 144:Drivers/STM32L0xx_HAL_Driver/Src/stm32l0xx_hal_rcc_ex.c ****         {
 145:Drivers/STM32L0xx_HAL_Driver/Src/stm32l0xx_hal_rcc_ex.c ****           return HAL_TIMEOUT;
 146:Drivers/STM32L0xx_HAL_Driver/Src/stm32l0xx_hal_rcc_ex.c ****         }
 147:Drivers/STM32L0xx_HAL_Driver/Src/stm32l0xx_hal_rcc_ex.c ****       }
 148:Drivers/STM32L0xx_HAL_Driver/Src/stm32l0xx_hal_rcc_ex.c ****     }
 149:Drivers/STM32L0xx_HAL_Driver/Src/stm32l0xx_hal_rcc_ex.c **** 
 150:Drivers/STM32L0xx_HAL_Driver/Src/stm32l0xx_hal_rcc_ex.c ****     /* Check if user wants to change HSE RTC prescaler whereas HSE is enabled */
 151:Drivers/STM32L0xx_HAL_Driver/Src/stm32l0xx_hal_rcc_ex.c ****     temp_reg = (RCC->CR & RCC_CR_RTCPRE);
  91              		.loc 1 151 5 is_stmt 1 view .LVU22
  92              		.loc 1 151 20 is_stmt 0 view .LVU23
  93 0030 784B     		ldr	r3, .L47
  94 0032 1A68     		ldr	r2, [r3]
  95              		.loc 1 151 14 view .LVU24
  96 0034 C023     		movs	r3, #192
  97 0036 9B03     		lsls	r3, r3, #14
  98 0038 1A40     		ands	r2, r3
  99              	.LVL5:
 152:Drivers/STM32L0xx_HAL_Driver/Src/stm32l0xx_hal_rcc_ex.c ****     if ((temp_reg != (PeriphClkInit->RTCClockSelection & RCC_CR_RTCPRE))
 100              		.loc 1 152 5 is_stmt 1 view .LVU25
 101              		.loc 1 152 36 is_stmt 0 view .LVU26
 102 003a 6168     		ldr	r1, [r4, #4]
 103              		.loc 1 152 56 view .LVU27
 104 003c 0B40     		ands	r3, r1
 105              		.loc 1 152 8 view .LVU28
 106 003e 9342     		cmp	r3, r2
 107 0040 00D1     		bne	.LCB70
 108 0042 ACE0     		b	.L41	@long jump
 109              	.LCB70:
 110              	.L8:
 153:Drivers/STM32L0xx_HAL_Driver/Src/stm32l0xx_hal_rcc_ex.c **** #if defined (LCD)
 154:Drivers/STM32L0xx_HAL_Driver/Src/stm32l0xx_hal_rcc_ex.c ****      || (temp_reg != (PeriphClkInit->LCDClockSelection & RCC_CR_RTCPRE))
 155:Drivers/STM32L0xx_HAL_Driver/Src/stm32l0xx_hal_rcc_ex.c **** #endif /* LCD */
 156:Drivers/STM32L0xx_HAL_Driver/Src/stm32l0xx_hal_rcc_ex.c ****        )
 157:Drivers/STM32L0xx_HAL_Driver/Src/stm32l0xx_hal_rcc_ex.c ****     { /* Check HSE State */
 158:Drivers/STM32L0xx_HAL_Driver/Src/stm32l0xx_hal_rcc_ex.c ****       if ((PeriphClkInit->RTCClockSelection & RCC_CSR_RTCSEL) == RCC_CSR_RTCSEL_HSE)
 111              		.loc 1 158 7 is_stmt 1 view .LVU29
 112              		.loc 1 158 45 is_stmt 0 view .LVU30
 113 0044 C023     		movs	r3, #192
 114 0046 9B02     		lsls	r3, r3, #10
 115 0048 0A00     		movs	r2, r1
 116              	.LVL6:
 117              		.loc 1 158 45 view .LVU31
 118 004a 1A40     		ands	r2, r3
 119              		.loc 1 158 10 view .LVU32
 120 004c 9A42     		cmp	r2, r3
 121 004e 00D1     		bne	.LCB79
 122 0050 ADE0     		b	.L42	@long jump
 123              	.LCB79:
 124              	.L9:
 159:Drivers/STM32L0xx_HAL_Driver/Src/stm32l0xx_hal_rcc_ex.c ****       {
 160:Drivers/STM32L0xx_HAL_Driver/Src/stm32l0xx_hal_rcc_ex.c ****         if (HAL_IS_BIT_SET(RCC->CR, RCC_CR_HSERDY))
 161:Drivers/STM32L0xx_HAL_Driver/Src/stm32l0xx_hal_rcc_ex.c ****         {
ARM GAS  /tmp/cc6QWq81.s 			page 6


 162:Drivers/STM32L0xx_HAL_Driver/Src/stm32l0xx_hal_rcc_ex.c ****           /* To update HSE divider, first switch-OFF HSE clock oscillator*/
 163:Drivers/STM32L0xx_HAL_Driver/Src/stm32l0xx_hal_rcc_ex.c ****           return HAL_ERROR;
 164:Drivers/STM32L0xx_HAL_Driver/Src/stm32l0xx_hal_rcc_ex.c ****         }
 165:Drivers/STM32L0xx_HAL_Driver/Src/stm32l0xx_hal_rcc_ex.c ****       }
 166:Drivers/STM32L0xx_HAL_Driver/Src/stm32l0xx_hal_rcc_ex.c ****     }
 167:Drivers/STM32L0xx_HAL_Driver/Src/stm32l0xx_hal_rcc_ex.c **** 
 168:Drivers/STM32L0xx_HAL_Driver/Src/stm32l0xx_hal_rcc_ex.c ****     /* Reset the Backup domain only if the RTC Clock source selection is modified from reset value 
 169:Drivers/STM32L0xx_HAL_Driver/Src/stm32l0xx_hal_rcc_ex.c ****     temp_reg = (RCC->CSR & RCC_CSR_RTCSEL);
 125              		.loc 1 169 5 is_stmt 1 view .LVU33
 126              		.loc 1 169 20 is_stmt 0 view .LVU34
 127 0052 704B     		ldr	r3, .L47
 128 0054 1A6D     		ldr	r2, [r3, #80]
 129              		.loc 1 169 14 view .LVU35
 130 0056 C023     		movs	r3, #192
 131 0058 9B02     		lsls	r3, r3, #10
 132 005a 1000     		movs	r0, r2
 133 005c 1840     		ands	r0, r3
 134              	.LVL7:
 170:Drivers/STM32L0xx_HAL_Driver/Src/stm32l0xx_hal_rcc_ex.c **** 
 171:Drivers/STM32L0xx_HAL_Driver/Src/stm32l0xx_hal_rcc_ex.c ****     if((temp_reg != 0x00000000U) && (((temp_reg != (PeriphClkInit->RTCClockSelection & RCC_CSR_RTCS
 135              		.loc 1 171 5 is_stmt 1 view .LVU36
 136              		.loc 1 171 7 is_stmt 0 view .LVU37
 137 005e 1A42     		tst	r2, r3
 138 0060 1FD0     		beq	.L10
 139              		.loc 1 171 86 discriminator 1 view .LVU38
 140 0062 1940     		ands	r1, r3
 141              		.loc 1 171 34 discriminator 1 view .LVU39
 142 0064 8142     		cmp	r1, r0
 143 0066 02D0     		beq	.L11
 172:Drivers/STM32L0xx_HAL_Driver/Src/stm32l0xx_hal_rcc_ex.c ****       && (((PeriphClkInit->PeriphClockSelection) & RCC_PERIPHCLK_RTC) == RCC_PERIPHCLK_RTC))
 144              		.loc 1 172 26 view .LVU40
 145 0068 2368     		ldr	r3, [r4]
 146              		.loc 1 172 7 view .LVU41
 147 006a 9B06     		lsls	r3, r3, #26
 148 006c 08D4     		bmi	.L12
 149              	.L11:
 173:Drivers/STM32L0xx_HAL_Driver/Src/stm32l0xx_hal_rcc_ex.c **** #if defined(LCD)
 174:Drivers/STM32L0xx_HAL_Driver/Src/stm32l0xx_hal_rcc_ex.c ****       || ((temp_reg != (PeriphClkInit->LCDClockSelection & RCC_CSR_RTCSEL)) \
 150              		.loc 1 174 38 view .LVU42
 151 006e A368     		ldr	r3, [r4, #8]
 152              		.loc 1 174 58 view .LVU43
 153 0070 C022     		movs	r2, #192
 154 0072 9202     		lsls	r2, r2, #10
 155 0074 1340     		ands	r3, r2
 156              		.loc 1 174 7 view .LVU44
 157 0076 8342     		cmp	r3, r0
 158 0078 13D0     		beq	.L10
 175:Drivers/STM32L0xx_HAL_Driver/Src/stm32l0xx_hal_rcc_ex.c ****        && (((PeriphClkInit->PeriphClockSelection) & RCC_PERIPHCLK_LCD) == RCC_PERIPHCLK_LCD))
 159              		.loc 1 175 27 view .LVU45
 160 007a 2368     		ldr	r3, [r4]
 161              		.loc 1 175 8 view .LVU46
 162 007c 1B05     		lsls	r3, r3, #20
 163 007e 10D5     		bpl	.L10
 164              	.L12:
 176:Drivers/STM32L0xx_HAL_Driver/Src/stm32l0xx_hal_rcc_ex.c **** #endif /* LCD */
 177:Drivers/STM32L0xx_HAL_Driver/Src/stm32l0xx_hal_rcc_ex.c ****      ))
 178:Drivers/STM32L0xx_HAL_Driver/Src/stm32l0xx_hal_rcc_ex.c ****     {
ARM GAS  /tmp/cc6QWq81.s 			page 7


 179:Drivers/STM32L0xx_HAL_Driver/Src/stm32l0xx_hal_rcc_ex.c ****       /* Store the content of CSR register before the reset of Backup Domain */
 180:Drivers/STM32L0xx_HAL_Driver/Src/stm32l0xx_hal_rcc_ex.c ****       temp_reg = (RCC->CSR & ~(RCC_CSR_RTCSEL));
 165              		.loc 1 180 7 is_stmt 1 view .LVU47
 166              		.loc 1 180 22 is_stmt 0 view .LVU48
 167 0080 644B     		ldr	r3, .L47
 168 0082 1A6D     		ldr	r2, [r3, #80]
 169              		.loc 1 180 16 view .LVU49
 170 0084 6549     		ldr	r1, .L47+8
 171 0086 1140     		ands	r1, r2
 172              	.LVL8:
 181:Drivers/STM32L0xx_HAL_Driver/Src/stm32l0xx_hal_rcc_ex.c **** 
 182:Drivers/STM32L0xx_HAL_Driver/Src/stm32l0xx_hal_rcc_ex.c ****       /* RTC Clock selection can be changed only if the Backup Domain is reset */
 183:Drivers/STM32L0xx_HAL_Driver/Src/stm32l0xx_hal_rcc_ex.c ****       __HAL_RCC_BACKUPRESET_FORCE();
 173              		.loc 1 183 7 is_stmt 1 view .LVU50
 174 0088 1E6D     		ldr	r6, [r3, #80]
 175 008a 8020     		movs	r0, #128
 176 008c 0003     		lsls	r0, r0, #12
 177 008e 3043     		orrs	r0, r6
 178 0090 1865     		str	r0, [r3, #80]
 184:Drivers/STM32L0xx_HAL_Driver/Src/stm32l0xx_hal_rcc_ex.c ****       __HAL_RCC_BACKUPRESET_RELEASE();
 179              		.loc 1 184 7 view .LVU51
 180 0092 186D     		ldr	r0, [r3, #80]
 181 0094 624E     		ldr	r6, .L47+12
 182 0096 3040     		ands	r0, r6
 183 0098 1865     		str	r0, [r3, #80]
 185:Drivers/STM32L0xx_HAL_Driver/Src/stm32l0xx_hal_rcc_ex.c **** 
 186:Drivers/STM32L0xx_HAL_Driver/Src/stm32l0xx_hal_rcc_ex.c ****       /* Restore the Content of CSR register */
 187:Drivers/STM32L0xx_HAL_Driver/Src/stm32l0xx_hal_rcc_ex.c ****       RCC->CSR = temp_reg;
 184              		.loc 1 187 7 view .LVU52
 185              		.loc 1 187 16 is_stmt 0 view .LVU53
 186 009a 1965     		str	r1, [r3, #80]
 188:Drivers/STM32L0xx_HAL_Driver/Src/stm32l0xx_hal_rcc_ex.c **** 
 189:Drivers/STM32L0xx_HAL_Driver/Src/stm32l0xx_hal_rcc_ex.c ****        /* Wait for LSERDY if LSE was enabled */
 190:Drivers/STM32L0xx_HAL_Driver/Src/stm32l0xx_hal_rcc_ex.c ****       if (HAL_IS_BIT_SET(temp_reg, RCC_CSR_LSEON))
 187              		.loc 1 190 7 is_stmt 1 view .LVU54
 188              		.loc 1 190 10 is_stmt 0 view .LVU55
 189 009c D205     		lsls	r2, r2, #23
 190 009e 00D5     		bpl	.LCB138
 191 00a0 8CE0     		b	.L43	@long jump
 192              	.LCB138:
 193              	.LVL9:
 194              	.L10:
 191:Drivers/STM32L0xx_HAL_Driver/Src/stm32l0xx_hal_rcc_ex.c ****       {
 192:Drivers/STM32L0xx_HAL_Driver/Src/stm32l0xx_hal_rcc_ex.c ****         /* Get Start Tick */
 193:Drivers/STM32L0xx_HAL_Driver/Src/stm32l0xx_hal_rcc_ex.c ****         tickstart = HAL_GetTick();
 194:Drivers/STM32L0xx_HAL_Driver/Src/stm32l0xx_hal_rcc_ex.c **** 
 195:Drivers/STM32L0xx_HAL_Driver/Src/stm32l0xx_hal_rcc_ex.c ****         /* Wait till LSE is ready */
 196:Drivers/STM32L0xx_HAL_Driver/Src/stm32l0xx_hal_rcc_ex.c ****         while(__HAL_RCC_GET_FLAG(RCC_FLAG_LSERDY) == 0U)
 197:Drivers/STM32L0xx_HAL_Driver/Src/stm32l0xx_hal_rcc_ex.c ****         {
 198:Drivers/STM32L0xx_HAL_Driver/Src/stm32l0xx_hal_rcc_ex.c ****           if((HAL_GetTick() - tickstart ) > RCC_LSE_TIMEOUT_VALUE)
 199:Drivers/STM32L0xx_HAL_Driver/Src/stm32l0xx_hal_rcc_ex.c ****           {
 200:Drivers/STM32L0xx_HAL_Driver/Src/stm32l0xx_hal_rcc_ex.c ****             return HAL_TIMEOUT;
 201:Drivers/STM32L0xx_HAL_Driver/Src/stm32l0xx_hal_rcc_ex.c ****           }
 202:Drivers/STM32L0xx_HAL_Driver/Src/stm32l0xx_hal_rcc_ex.c ****         }
 203:Drivers/STM32L0xx_HAL_Driver/Src/stm32l0xx_hal_rcc_ex.c ****       }
 204:Drivers/STM32L0xx_HAL_Driver/Src/stm32l0xx_hal_rcc_ex.c ****     }
 205:Drivers/STM32L0xx_HAL_Driver/Src/stm32l0xx_hal_rcc_ex.c **** #if defined(LCD)
ARM GAS  /tmp/cc6QWq81.s 			page 8


 206:Drivers/STM32L0xx_HAL_Driver/Src/stm32l0xx_hal_rcc_ex.c ****     if(((PeriphClkInit->PeriphClockSelection) & RCC_PERIPHCLK_LCD) == RCC_PERIPHCLK_LCD)
 195              		.loc 1 206 5 is_stmt 1 view .LVU56
 196              		.loc 1 206 23 is_stmt 0 view .LVU57
 197 00a2 2368     		ldr	r3, [r4]
 198              		.loc 1 206 7 view .LVU58
 199 00a4 1B05     		lsls	r3, r3, #20
 200 00a6 0FD5     		bpl	.L15
 207:Drivers/STM32L0xx_HAL_Driver/Src/stm32l0xx_hal_rcc_ex.c ****     {
 208:Drivers/STM32L0xx_HAL_Driver/Src/stm32l0xx_hal_rcc_ex.c ****       __HAL_RCC_LCD_CONFIG(PeriphClkInit->LCDClockSelection);
 201              		.loc 1 208 7 is_stmt 1 view .LVU59
 202              		.loc 1 208 7 view .LVU60
 203              		.loc 1 208 7 view .LVU61
 204 00a8 A368     		ldr	r3, [r4, #8]
 205 00aa C022     		movs	r2, #192
 206 00ac 9202     		lsls	r2, r2, #10
 207 00ae 1900     		movs	r1, r3
 208 00b0 1140     		ands	r1, r2
 209 00b2 9142     		cmp	r1, r2
 210 00b4 00D1     		bne	.LCB156
 211 00b6 91E0     		b	.L44	@long jump
 212              	.LCB156:
 213              	.L16:
 214              		.loc 1 208 7 discriminator 3 view .LVU62
 215              		.loc 1 208 7 discriminator 3 view .LVU63
 216 00b8 5649     		ldr	r1, .L47
 217 00ba 0B6D     		ldr	r3, [r1, #80]
 218 00bc A268     		ldr	r2, [r4, #8]
 219 00be C020     		movs	r0, #192
 220 00c0 8002     		lsls	r0, r0, #10
 221 00c2 0240     		ands	r2, r0
 222 00c4 1343     		orrs	r3, r2
 223 00c6 0B65     		str	r3, [r1, #80]
 224              	.L15:
 225              		.loc 1 208 7 discriminator 4 view .LVU64
 209:Drivers/STM32L0xx_HAL_Driver/Src/stm32l0xx_hal_rcc_ex.c ****     } 
 210:Drivers/STM32L0xx_HAL_Driver/Src/stm32l0xx_hal_rcc_ex.c **** #endif /* LCD */
 211:Drivers/STM32L0xx_HAL_Driver/Src/stm32l0xx_hal_rcc_ex.c **** 
 212:Drivers/STM32L0xx_HAL_Driver/Src/stm32l0xx_hal_rcc_ex.c ****     if(((PeriphClkInit->PeriphClockSelection) & RCC_PERIPHCLK_RTC) == RCC_PERIPHCLK_RTC)
 226              		.loc 1 212 5 discriminator 4 view .LVU65
 227              		.loc 1 212 23 is_stmt 0 discriminator 4 view .LVU66
 228 00c8 2368     		ldr	r3, [r4]
 229              		.loc 1 212 7 discriminator 4 view .LVU67
 230 00ca 9B06     		lsls	r3, r3, #26
 231 00cc 0FD5     		bpl	.L17
 213:Drivers/STM32L0xx_HAL_Driver/Src/stm32l0xx_hal_rcc_ex.c ****     {
 214:Drivers/STM32L0xx_HAL_Driver/Src/stm32l0xx_hal_rcc_ex.c ****       __HAL_RCC_RTC_CONFIG(PeriphClkInit->RTCClockSelection);
 232              		.loc 1 214 7 is_stmt 1 view .LVU68
 233              		.loc 1 214 7 view .LVU69
 234              		.loc 1 214 7 view .LVU70
 235 00ce 6368     		ldr	r3, [r4, #4]
 236 00d0 C022     		movs	r2, #192
 237 00d2 9202     		lsls	r2, r2, #10
 238 00d4 1900     		movs	r1, r3
 239 00d6 1140     		ands	r1, r2
 240 00d8 9142     		cmp	r1, r2
 241 00da 00D1     		bne	.LCB187
 242 00dc 88E0     		b	.L45	@long jump
ARM GAS  /tmp/cc6QWq81.s 			page 9


 243              	.LCB187:
 244              	.L18:
 245              		.loc 1 214 7 discriminator 3 view .LVU71
 246              		.loc 1 214 7 discriminator 3 view .LVU72
 247 00de 4D49     		ldr	r1, .L47
 248 00e0 0B6D     		ldr	r3, [r1, #80]
 249 00e2 6268     		ldr	r2, [r4, #4]
 250 00e4 C020     		movs	r0, #192
 251 00e6 8002     		lsls	r0, r0, #10
 252 00e8 0240     		ands	r2, r0
 253 00ea 1343     		orrs	r3, r2
 254 00ec 0B65     		str	r3, [r1, #80]
 255              	.L17:
 256              		.loc 1 214 7 discriminator 4 view .LVU73
 215:Drivers/STM32L0xx_HAL_Driver/Src/stm32l0xx_hal_rcc_ex.c ****     }
 216:Drivers/STM32L0xx_HAL_Driver/Src/stm32l0xx_hal_rcc_ex.c **** 
 217:Drivers/STM32L0xx_HAL_Driver/Src/stm32l0xx_hal_rcc_ex.c ****     /* Require to disable power clock if necessary */
 218:Drivers/STM32L0xx_HAL_Driver/Src/stm32l0xx_hal_rcc_ex.c ****     if(pwrclkchanged == SET)
 257              		.loc 1 218 5 discriminator 4 view .LVU74
 258              		.loc 1 218 7 is_stmt 0 discriminator 4 view .LVU75
 259 00ee 012D     		cmp	r5, #1
 260 00f0 00D1     		bne	.LCB205
 261 00f2 87E0     		b	.L46	@long jump
 262              	.LCB205:
 263              	.LVL10:
 264              	.L2:
 219:Drivers/STM32L0xx_HAL_Driver/Src/stm32l0xx_hal_rcc_ex.c ****     {
 220:Drivers/STM32L0xx_HAL_Driver/Src/stm32l0xx_hal_rcc_ex.c ****       __HAL_RCC_PWR_CLK_DISABLE();
 221:Drivers/STM32L0xx_HAL_Driver/Src/stm32l0xx_hal_rcc_ex.c ****     }
 222:Drivers/STM32L0xx_HAL_Driver/Src/stm32l0xx_hal_rcc_ex.c ****   }
 223:Drivers/STM32L0xx_HAL_Driver/Src/stm32l0xx_hal_rcc_ex.c **** 
 224:Drivers/STM32L0xx_HAL_Driver/Src/stm32l0xx_hal_rcc_ex.c **** #if defined (RCC_CCIPR_USART1SEL)
 225:Drivers/STM32L0xx_HAL_Driver/Src/stm32l0xx_hal_rcc_ex.c ****   /*------------------------------- USART1 Configuration ------------------------*/
 226:Drivers/STM32L0xx_HAL_Driver/Src/stm32l0xx_hal_rcc_ex.c ****   if(((PeriphClkInit->PeriphClockSelection) & RCC_PERIPHCLK_USART1) == RCC_PERIPHCLK_USART1)
 265              		.loc 1 226 3 is_stmt 1 view .LVU76
 266              		.loc 1 226 21 is_stmt 0 view .LVU77
 267 00f4 2368     		ldr	r3, [r4]
 268              		.loc 1 226 5 view .LVU78
 269 00f6 DB07     		lsls	r3, r3, #31
 270 00f8 06D5     		bpl	.L19
 227:Drivers/STM32L0xx_HAL_Driver/Src/stm32l0xx_hal_rcc_ex.c ****   {
 228:Drivers/STM32L0xx_HAL_Driver/Src/stm32l0xx_hal_rcc_ex.c ****     /* Check the parameters */
 229:Drivers/STM32L0xx_HAL_Driver/Src/stm32l0xx_hal_rcc_ex.c ****     assert_param(IS_RCC_USART1CLKSOURCE(PeriphClkInit->Usart1ClockSelection));
 271              		.loc 1 229 5 is_stmt 1 view .LVU79
 230:Drivers/STM32L0xx_HAL_Driver/Src/stm32l0xx_hal_rcc_ex.c **** 
 231:Drivers/STM32L0xx_HAL_Driver/Src/stm32l0xx_hal_rcc_ex.c ****     /* Configure the USART1 clock source */
 232:Drivers/STM32L0xx_HAL_Driver/Src/stm32l0xx_hal_rcc_ex.c ****     __HAL_RCC_USART1_CONFIG(PeriphClkInit->Usart1ClockSelection);
 272              		.loc 1 232 5 view .LVU80
 273 00fa 464A     		ldr	r2, .L47
 274 00fc D36C     		ldr	r3, [r2, #76]
 275 00fe 0321     		movs	r1, #3
 276 0100 8B43     		bics	r3, r1
 277 0102 E168     		ldr	r1, [r4, #12]
 278 0104 0B43     		orrs	r3, r1
 279 0106 D364     		str	r3, [r2, #76]
 280              	.L19:
 233:Drivers/STM32L0xx_HAL_Driver/Src/stm32l0xx_hal_rcc_ex.c ****   }
ARM GAS  /tmp/cc6QWq81.s 			page 10


 234:Drivers/STM32L0xx_HAL_Driver/Src/stm32l0xx_hal_rcc_ex.c **** #endif /* RCC_CCIPR_USART1SEL */
 235:Drivers/STM32L0xx_HAL_Driver/Src/stm32l0xx_hal_rcc_ex.c **** 
 236:Drivers/STM32L0xx_HAL_Driver/Src/stm32l0xx_hal_rcc_ex.c ****   /*----------------------------- USART2 Configuration --------------------------*/
 237:Drivers/STM32L0xx_HAL_Driver/Src/stm32l0xx_hal_rcc_ex.c ****   if(((PeriphClkInit->PeriphClockSelection) & RCC_PERIPHCLK_USART2) == RCC_PERIPHCLK_USART2)
 281              		.loc 1 237 3 view .LVU81
 282              		.loc 1 237 21 is_stmt 0 view .LVU82
 283 0108 2368     		ldr	r3, [r4]
 284              		.loc 1 237 5 view .LVU83
 285 010a 9B07     		lsls	r3, r3, #30
 286 010c 06D5     		bpl	.L20
 238:Drivers/STM32L0xx_HAL_Driver/Src/stm32l0xx_hal_rcc_ex.c ****   {
 239:Drivers/STM32L0xx_HAL_Driver/Src/stm32l0xx_hal_rcc_ex.c ****     /* Check the parameters */
 240:Drivers/STM32L0xx_HAL_Driver/Src/stm32l0xx_hal_rcc_ex.c ****     assert_param(IS_RCC_USART2CLKSOURCE(PeriphClkInit->Usart2ClockSelection));
 287              		.loc 1 240 5 is_stmt 1 view .LVU84
 241:Drivers/STM32L0xx_HAL_Driver/Src/stm32l0xx_hal_rcc_ex.c **** 
 242:Drivers/STM32L0xx_HAL_Driver/Src/stm32l0xx_hal_rcc_ex.c ****     /* Configure the USART2 clock source */
 243:Drivers/STM32L0xx_HAL_Driver/Src/stm32l0xx_hal_rcc_ex.c ****     __HAL_RCC_USART2_CONFIG(PeriphClkInit->Usart2ClockSelection);
 288              		.loc 1 243 5 view .LVU85
 289 010e 414A     		ldr	r2, .L47
 290 0110 D36C     		ldr	r3, [r2, #76]
 291 0112 0C21     		movs	r1, #12
 292 0114 8B43     		bics	r3, r1
 293 0116 2169     		ldr	r1, [r4, #16]
 294 0118 0B43     		orrs	r3, r1
 295 011a D364     		str	r3, [r2, #76]
 296              	.L20:
 244:Drivers/STM32L0xx_HAL_Driver/Src/stm32l0xx_hal_rcc_ex.c ****   }
 245:Drivers/STM32L0xx_HAL_Driver/Src/stm32l0xx_hal_rcc_ex.c **** 
 246:Drivers/STM32L0xx_HAL_Driver/Src/stm32l0xx_hal_rcc_ex.c ****   /*------------------------------ LPUART1 Configuration ------------------------*/
 247:Drivers/STM32L0xx_HAL_Driver/Src/stm32l0xx_hal_rcc_ex.c ****   if(((PeriphClkInit->PeriphClockSelection) & RCC_PERIPHCLK_LPUART1) == RCC_PERIPHCLK_LPUART1)
 297              		.loc 1 247 3 view .LVU86
 298              		.loc 1 247 21 is_stmt 0 view .LVU87
 299 011c 2368     		ldr	r3, [r4]
 300              		.loc 1 247 5 view .LVU88
 301 011e 5B07     		lsls	r3, r3, #29
 302 0120 06D5     		bpl	.L21
 248:Drivers/STM32L0xx_HAL_Driver/Src/stm32l0xx_hal_rcc_ex.c ****   {
 249:Drivers/STM32L0xx_HAL_Driver/Src/stm32l0xx_hal_rcc_ex.c ****     /* Check the parameters */
 250:Drivers/STM32L0xx_HAL_Driver/Src/stm32l0xx_hal_rcc_ex.c ****     assert_param(IS_RCC_LPUART1CLKSOURCE(PeriphClkInit->Lpuart1ClockSelection));
 303              		.loc 1 250 5 is_stmt 1 view .LVU89
 251:Drivers/STM32L0xx_HAL_Driver/Src/stm32l0xx_hal_rcc_ex.c **** 
 252:Drivers/STM32L0xx_HAL_Driver/Src/stm32l0xx_hal_rcc_ex.c ****     /* Configure the LPUAR1 clock source */
 253:Drivers/STM32L0xx_HAL_Driver/Src/stm32l0xx_hal_rcc_ex.c ****     __HAL_RCC_LPUART1_CONFIG(PeriphClkInit->Lpuart1ClockSelection);
 304              		.loc 1 253 5 view .LVU90
 305 0122 3C4A     		ldr	r2, .L47
 306 0124 D36C     		ldr	r3, [r2, #76]
 307 0126 3F49     		ldr	r1, .L47+16
 308 0128 0B40     		ands	r3, r1
 309 012a 6169     		ldr	r1, [r4, #20]
 310 012c 0B43     		orrs	r3, r1
 311 012e D364     		str	r3, [r2, #76]
 312              	.L21:
 254:Drivers/STM32L0xx_HAL_Driver/Src/stm32l0xx_hal_rcc_ex.c ****   }
 255:Drivers/STM32L0xx_HAL_Driver/Src/stm32l0xx_hal_rcc_ex.c **** 
 256:Drivers/STM32L0xx_HAL_Driver/Src/stm32l0xx_hal_rcc_ex.c ****   /*------------------------------ I2C1 Configuration ------------------------*/
 257:Drivers/STM32L0xx_HAL_Driver/Src/stm32l0xx_hal_rcc_ex.c ****   if(((PeriphClkInit->PeriphClockSelection) & RCC_PERIPHCLK_I2C1) == RCC_PERIPHCLK_I2C1)
 313              		.loc 1 257 3 view .LVU91
ARM GAS  /tmp/cc6QWq81.s 			page 11


 314              		.loc 1 257 21 is_stmt 0 view .LVU92
 315 0130 2368     		ldr	r3, [r4]
 316              		.loc 1 257 5 view .LVU93
 317 0132 1B07     		lsls	r3, r3, #28
 318 0134 06D5     		bpl	.L22
 258:Drivers/STM32L0xx_HAL_Driver/Src/stm32l0xx_hal_rcc_ex.c ****   {
 259:Drivers/STM32L0xx_HAL_Driver/Src/stm32l0xx_hal_rcc_ex.c ****     /* Check the parameters */
 260:Drivers/STM32L0xx_HAL_Driver/Src/stm32l0xx_hal_rcc_ex.c ****     assert_param(IS_RCC_I2C1CLKSOURCE(PeriphClkInit->I2c1ClockSelection));
 319              		.loc 1 260 5 is_stmt 1 view .LVU94
 261:Drivers/STM32L0xx_HAL_Driver/Src/stm32l0xx_hal_rcc_ex.c **** 
 262:Drivers/STM32L0xx_HAL_Driver/Src/stm32l0xx_hal_rcc_ex.c ****     /* Configure the I2C1 clock source */
 263:Drivers/STM32L0xx_HAL_Driver/Src/stm32l0xx_hal_rcc_ex.c ****     __HAL_RCC_I2C1_CONFIG(PeriphClkInit->I2c1ClockSelection);
 320              		.loc 1 263 5 view .LVU95
 321 0136 374A     		ldr	r2, .L47
 322 0138 D36C     		ldr	r3, [r2, #76]
 323 013a 3B49     		ldr	r1, .L47+20
 324 013c 0B40     		ands	r3, r1
 325 013e A169     		ldr	r1, [r4, #24]
 326 0140 0B43     		orrs	r3, r1
 327 0142 D364     		str	r3, [r2, #76]
 328              	.L22:
 264:Drivers/STM32L0xx_HAL_Driver/Src/stm32l0xx_hal_rcc_ex.c ****   }
 265:Drivers/STM32L0xx_HAL_Driver/Src/stm32l0xx_hal_rcc_ex.c **** 
 266:Drivers/STM32L0xx_HAL_Driver/Src/stm32l0xx_hal_rcc_ex.c **** #if defined (RCC_CCIPR_I2C3SEL)
 267:Drivers/STM32L0xx_HAL_Driver/Src/stm32l0xx_hal_rcc_ex.c ****     /*------------------------------ I2C3 Configuration ------------------------*/
 268:Drivers/STM32L0xx_HAL_Driver/Src/stm32l0xx_hal_rcc_ex.c ****   if(((PeriphClkInit->PeriphClockSelection) & RCC_PERIPHCLK_I2C3) == RCC_PERIPHCLK_I2C3)
 269:Drivers/STM32L0xx_HAL_Driver/Src/stm32l0xx_hal_rcc_ex.c ****   {
 270:Drivers/STM32L0xx_HAL_Driver/Src/stm32l0xx_hal_rcc_ex.c ****     /* Check the parameters */
 271:Drivers/STM32L0xx_HAL_Driver/Src/stm32l0xx_hal_rcc_ex.c ****     assert_param(IS_RCC_I2C3CLKSOURCE(PeriphClkInit->I2c3ClockSelection));
 272:Drivers/STM32L0xx_HAL_Driver/Src/stm32l0xx_hal_rcc_ex.c **** 
 273:Drivers/STM32L0xx_HAL_Driver/Src/stm32l0xx_hal_rcc_ex.c ****     /* Configure the I2C3 clock source */
 274:Drivers/STM32L0xx_HAL_Driver/Src/stm32l0xx_hal_rcc_ex.c ****     __HAL_RCC_I2C3_CONFIG(PeriphClkInit->I2c3ClockSelection);
 275:Drivers/STM32L0xx_HAL_Driver/Src/stm32l0xx_hal_rcc_ex.c ****   }
 276:Drivers/STM32L0xx_HAL_Driver/Src/stm32l0xx_hal_rcc_ex.c **** #endif /* RCC_CCIPR_I2C3SEL */
 277:Drivers/STM32L0xx_HAL_Driver/Src/stm32l0xx_hal_rcc_ex.c **** 
 278:Drivers/STM32L0xx_HAL_Driver/Src/stm32l0xx_hal_rcc_ex.c **** #if defined(USB)
 279:Drivers/STM32L0xx_HAL_Driver/Src/stm32l0xx_hal_rcc_ex.c ****  /*---------------------------- USB and RNG configuration --------------------*/
 280:Drivers/STM32L0xx_HAL_Driver/Src/stm32l0xx_hal_rcc_ex.c ****   if(((PeriphClkInit->PeriphClockSelection) & RCC_PERIPHCLK_USB) == (RCC_PERIPHCLK_USB))
 329              		.loc 1 280 3 view .LVU96
 330              		.loc 1 280 21 is_stmt 0 view .LVU97
 331 0144 2368     		ldr	r3, [r4]
 332              		.loc 1 280 5 view .LVU98
 333 0146 5B06     		lsls	r3, r3, #25
 334 0148 06D5     		bpl	.L23
 281:Drivers/STM32L0xx_HAL_Driver/Src/stm32l0xx_hal_rcc_ex.c ****   {
 282:Drivers/STM32L0xx_HAL_Driver/Src/stm32l0xx_hal_rcc_ex.c ****     assert_param(IS_RCC_USBCLKSOURCE(PeriphClkInit->UsbClockSelection));
 335              		.loc 1 282 5 is_stmt 1 view .LVU99
 283:Drivers/STM32L0xx_HAL_Driver/Src/stm32l0xx_hal_rcc_ex.c ****     __HAL_RCC_USB_CONFIG(PeriphClkInit->UsbClockSelection);
 336              		.loc 1 283 5 view .LVU100
 337 014a 324A     		ldr	r2, .L47
 338 014c D36C     		ldr	r3, [r2, #76]
 339 014e 3749     		ldr	r1, .L47+24
 340 0150 0B40     		ands	r3, r1
 341 0152 216A     		ldr	r1, [r4, #32]
 342 0154 0B43     		orrs	r3, r1
 343 0156 D364     		str	r3, [r2, #76]
 344              	.L23:
ARM GAS  /tmp/cc6QWq81.s 			page 12


 284:Drivers/STM32L0xx_HAL_Driver/Src/stm32l0xx_hal_rcc_ex.c ****   }
 285:Drivers/STM32L0xx_HAL_Driver/Src/stm32l0xx_hal_rcc_ex.c **** #endif /* USB */
 286:Drivers/STM32L0xx_HAL_Driver/Src/stm32l0xx_hal_rcc_ex.c **** 
 287:Drivers/STM32L0xx_HAL_Driver/Src/stm32l0xx_hal_rcc_ex.c ****   /*---------------------------- LPTIM1 configuration ------------------------*/
 288:Drivers/STM32L0xx_HAL_Driver/Src/stm32l0xx_hal_rcc_ex.c ****   if(((PeriphClkInit->PeriphClockSelection) & RCC_PERIPHCLK_LPTIM1) == (RCC_PERIPHCLK_LPTIM1))
 345              		.loc 1 288 3 view .LVU101
 346              		.loc 1 288 21 is_stmt 0 view .LVU102
 347 0158 2368     		ldr	r3, [r4]
 348              		.loc 1 288 5 view .LVU103
 349 015a 1B06     		lsls	r3, r3, #24
 350 015c 58D5     		bpl	.L28
 289:Drivers/STM32L0xx_HAL_Driver/Src/stm32l0xx_hal_rcc_ex.c ****   {
 290:Drivers/STM32L0xx_HAL_Driver/Src/stm32l0xx_hal_rcc_ex.c ****     assert_param(IS_RCC_LPTIMCLK(PeriphClkInit->LptimClockSelection));
 351              		.loc 1 290 5 is_stmt 1 view .LVU104
 291:Drivers/STM32L0xx_HAL_Driver/Src/stm32l0xx_hal_rcc_ex.c ****     __HAL_RCC_LPTIM1_CONFIG(PeriphClkInit->LptimClockSelection);
 352              		.loc 1 291 5 view .LVU105
 353 015e 2D4A     		ldr	r2, .L47
 354 0160 D36C     		ldr	r3, [r2, #76]
 355 0162 3349     		ldr	r1, .L47+28
 356 0164 0B40     		ands	r3, r1
 357 0166 E169     		ldr	r1, [r4, #28]
 358 0168 0B43     		orrs	r3, r1
 359 016a D364     		str	r3, [r2, #76]
 292:Drivers/STM32L0xx_HAL_Driver/Src/stm32l0xx_hal_rcc_ex.c ****   }
 293:Drivers/STM32L0xx_HAL_Driver/Src/stm32l0xx_hal_rcc_ex.c **** 
 294:Drivers/STM32L0xx_HAL_Driver/Src/stm32l0xx_hal_rcc_ex.c ****   return HAL_OK;
 360              		.loc 1 294 10 is_stmt 0 view .LVU106
 361 016c 0020     		movs	r0, #0
 362 016e 50E0     		b	.L6
 363              	.LVL11:
 364              	.L24:
  99:Drivers/STM32L0xx_HAL_Driver/Src/stm32l0xx_hal_rcc_ex.c **** 
 365              		.loc 1 99 20 view .LVU107
 366 0170 0025     		movs	r5, #0
 367 0172 58E7     		b	.L3
 368              	.LVL12:
 369              	.L40:
 136:Drivers/STM32L0xx_HAL_Driver/Src/stm32l0xx_hal_rcc_ex.c **** 
 370              		.loc 1 136 7 is_stmt 1 view .LVU108
 371 0174 284A     		ldr	r2, .L47+4
 372 0176 1168     		ldr	r1, [r2]
 373 0178 8023     		movs	r3, #128
 374 017a 5B00     		lsls	r3, r3, #1
 375 017c 0B43     		orrs	r3, r1
 376 017e 1360     		str	r3, [r2]
 139:Drivers/STM32L0xx_HAL_Driver/Src/stm32l0xx_hal_rcc_ex.c **** 
 377              		.loc 1 139 7 view .LVU109
 139:Drivers/STM32L0xx_HAL_Driver/Src/stm32l0xx_hal_rcc_ex.c **** 
 378              		.loc 1 139 19 is_stmt 0 view .LVU110
 379 0180 FFF7FEFF 		bl	HAL_GetTick
 380              	.LVL13:
 139:Drivers/STM32L0xx_HAL_Driver/Src/stm32l0xx_hal_rcc_ex.c **** 
 381              		.loc 1 139 19 view .LVU111
 382 0184 0600     		movs	r6, r0
 383              	.LVL14:
 141:Drivers/STM32L0xx_HAL_Driver/Src/stm32l0xx_hal_rcc_ex.c ****       {
 384              		.loc 1 141 7 is_stmt 1 view .LVU112
ARM GAS  /tmp/cc6QWq81.s 			page 13


 385              	.L5:
 141:Drivers/STM32L0xx_HAL_Driver/Src/stm32l0xx_hal_rcc_ex.c ****       {
 386              		.loc 1 141 13 view .LVU113
 387 0186 244B     		ldr	r3, .L47+4
 388 0188 1B68     		ldr	r3, [r3]
 389 018a DB05     		lsls	r3, r3, #23
 390 018c 00D5     		bpl	.LCB344
 391 018e 4FE7     		b	.L4	@long jump
 392              	.LCB344:
 143:Drivers/STM32L0xx_HAL_Driver/Src/stm32l0xx_hal_rcc_ex.c ****         {
 393              		.loc 1 143 9 view .LVU114
 143:Drivers/STM32L0xx_HAL_Driver/Src/stm32l0xx_hal_rcc_ex.c ****         {
 394              		.loc 1 143 13 is_stmt 0 view .LVU115
 395 0190 FFF7FEFF 		bl	HAL_GetTick
 396              	.LVL15:
 143:Drivers/STM32L0xx_HAL_Driver/Src/stm32l0xx_hal_rcc_ex.c ****         {
 397              		.loc 1 143 27 view .LVU116
 398 0194 801B     		subs	r0, r0, r6
 143:Drivers/STM32L0xx_HAL_Driver/Src/stm32l0xx_hal_rcc_ex.c ****         {
 399              		.loc 1 143 11 view .LVU117
 400 0196 6428     		cmp	r0, #100
 401 0198 F5D9     		bls	.L5
 145:Drivers/STM32L0xx_HAL_Driver/Src/stm32l0xx_hal_rcc_ex.c ****         }
 402              		.loc 1 145 18 view .LVU118
 403 019a 0320     		movs	r0, #3
 404 019c 39E0     		b	.L6
 405              	.LVL16:
 406              	.L41:
 154:Drivers/STM32L0xx_HAL_Driver/Src/stm32l0xx_hal_rcc_ex.c **** #endif /* LCD */
 407              		.loc 1 154 36 view .LVU119
 408 019e A368     		ldr	r3, [r4, #8]
 154:Drivers/STM32L0xx_HAL_Driver/Src/stm32l0xx_hal_rcc_ex.c **** #endif /* LCD */
 409              		.loc 1 154 56 view .LVU120
 410 01a0 C020     		movs	r0, #192
 411 01a2 8003     		lsls	r0, r0, #14
 412 01a4 0340     		ands	r3, r0
 154:Drivers/STM32L0xx_HAL_Driver/Src/stm32l0xx_hal_rcc_ex.c **** #endif /* LCD */
 413              		.loc 1 154 6 view .LVU121
 414 01a6 9342     		cmp	r3, r2
 415 01a8 00D0     		beq	.LCB364
 416 01aa 4BE7     		b	.L8	@long jump
 417              	.LCB364:
 418 01ac 51E7     		b	.L9
 419              	.LVL17:
 420              	.L42:
 160:Drivers/STM32L0xx_HAL_Driver/Src/stm32l0xx_hal_rcc_ex.c ****         {
 421              		.loc 1 160 9 is_stmt 1 view .LVU122
 160:Drivers/STM32L0xx_HAL_Driver/Src/stm32l0xx_hal_rcc_ex.c ****         {
 422              		.loc 1 160 13 is_stmt 0 view .LVU123
 423 01ae 194B     		ldr	r3, .L47
 424 01b0 1B68     		ldr	r3, [r3]
 160:Drivers/STM32L0xx_HAL_Driver/Src/stm32l0xx_hal_rcc_ex.c ****         {
 425              		.loc 1 160 12 view .LVU124
 426 01b2 9B03     		lsls	r3, r3, #14
 427 01b4 00D4     		bmi	.LCB377
 428 01b6 4CE7     		b	.L9	@long jump
 429              	.LCB377:
ARM GAS  /tmp/cc6QWq81.s 			page 14


 163:Drivers/STM32L0xx_HAL_Driver/Src/stm32l0xx_hal_rcc_ex.c ****         }
 430              		.loc 1 163 18 view .LVU125
 431 01b8 0120     		movs	r0, #1
 432 01ba 2AE0     		b	.L6
 433              	.LVL18:
 434              	.L43:
 193:Drivers/STM32L0xx_HAL_Driver/Src/stm32l0xx_hal_rcc_ex.c **** 
 435              		.loc 1 193 9 is_stmt 1 view .LVU126
 193:Drivers/STM32L0xx_HAL_Driver/Src/stm32l0xx_hal_rcc_ex.c **** 
 436              		.loc 1 193 21 is_stmt 0 view .LVU127
 437 01bc FFF7FEFF 		bl	HAL_GetTick
 438              	.LVL19:
 193:Drivers/STM32L0xx_HAL_Driver/Src/stm32l0xx_hal_rcc_ex.c **** 
 439              		.loc 1 193 21 view .LVU128
 440 01c0 0600     		movs	r6, r0
 441              	.LVL20:
 196:Drivers/STM32L0xx_HAL_Driver/Src/stm32l0xx_hal_rcc_ex.c ****         {
 442              		.loc 1 196 9 is_stmt 1 view .LVU129
 443              	.L13:
 196:Drivers/STM32L0xx_HAL_Driver/Src/stm32l0xx_hal_rcc_ex.c ****         {
 444              		.loc 1 196 51 view .LVU130
 196:Drivers/STM32L0xx_HAL_Driver/Src/stm32l0xx_hal_rcc_ex.c ****         {
 445              		.loc 1 196 15 is_stmt 0 view .LVU131
 446 01c2 144B     		ldr	r3, .L47
 447 01c4 1B6D     		ldr	r3, [r3, #80]
 196:Drivers/STM32L0xx_HAL_Driver/Src/stm32l0xx_hal_rcc_ex.c ****         {
 448              		.loc 1 196 51 view .LVU132
 449 01c6 9B05     		lsls	r3, r3, #22
 450 01c8 00D5     		bpl	.LCB399
 451 01ca 6AE7     		b	.L10	@long jump
 452              	.LCB399:
 198:Drivers/STM32L0xx_HAL_Driver/Src/stm32l0xx_hal_rcc_ex.c ****           {
 453              		.loc 1 198 11 is_stmt 1 view .LVU133
 198:Drivers/STM32L0xx_HAL_Driver/Src/stm32l0xx_hal_rcc_ex.c ****           {
 454              		.loc 1 198 15 is_stmt 0 view .LVU134
 455 01cc FFF7FEFF 		bl	HAL_GetTick
 456              	.LVL21:
 198:Drivers/STM32L0xx_HAL_Driver/Src/stm32l0xx_hal_rcc_ex.c ****           {
 457              		.loc 1 198 29 view .LVU135
 458 01d0 801B     		subs	r0, r0, r6
 198:Drivers/STM32L0xx_HAL_Driver/Src/stm32l0xx_hal_rcc_ex.c ****           {
 459              		.loc 1 198 13 view .LVU136
 460 01d2 184B     		ldr	r3, .L47+32
 461 01d4 9842     		cmp	r0, r3
 462 01d6 F4D9     		bls	.L13
 200:Drivers/STM32L0xx_HAL_Driver/Src/stm32l0xx_hal_rcc_ex.c ****           }
 463              		.loc 1 200 20 view .LVU137
 464 01d8 0320     		movs	r0, #3
 465 01da 1AE0     		b	.L6
 466              	.LVL22:
 467              	.L44:
 208:Drivers/STM32L0xx_HAL_Driver/Src/stm32l0xx_hal_rcc_ex.c ****     } 
 468              		.loc 1 208 7 is_stmt 1 discriminator 1 view .LVU138
 469 01dc 0D49     		ldr	r1, .L47
 470 01de 0A68     		ldr	r2, [r1]
 471 01e0 1548     		ldr	r0, .L47+36
 472 01e2 0240     		ands	r2, r0
ARM GAS  /tmp/cc6QWq81.s 			page 15


 473 01e4 C020     		movs	r0, #192
 474 01e6 8003     		lsls	r0, r0, #14
 475 01e8 0340     		ands	r3, r0
 476 01ea 1343     		orrs	r3, r2
 477 01ec 0B60     		str	r3, [r1]
 478 01ee 63E7     		b	.L16
 479              	.L45:
 214:Drivers/STM32L0xx_HAL_Driver/Src/stm32l0xx_hal_rcc_ex.c ****     }
 480              		.loc 1 214 7 discriminator 1 view .LVU139
 481 01f0 0849     		ldr	r1, .L47
 482 01f2 0A68     		ldr	r2, [r1]
 483 01f4 1048     		ldr	r0, .L47+36
 484 01f6 0240     		ands	r2, r0
 485 01f8 C020     		movs	r0, #192
 486 01fa 8003     		lsls	r0, r0, #14
 487 01fc 0340     		ands	r3, r0
 488 01fe 1343     		orrs	r3, r2
 489 0200 0B60     		str	r3, [r1]
 490 0202 6CE7     		b	.L18
 491              	.L46:
 220:Drivers/STM32L0xx_HAL_Driver/Src/stm32l0xx_hal_rcc_ex.c ****     }
 492              		.loc 1 220 7 view .LVU140
 493 0204 034A     		ldr	r2, .L47
 494 0206 936B     		ldr	r3, [r2, #56]
 495 0208 0C49     		ldr	r1, .L47+40
 496 020a 0B40     		ands	r3, r1
 497 020c 9363     		str	r3, [r2, #56]
 498 020e 71E7     		b	.L2
 499              	.LVL23:
 500              	.L28:
 501              		.loc 1 294 10 is_stmt 0 view .LVU141
 502 0210 0020     		movs	r0, #0
 503              	.L6:
 295:Drivers/STM32L0xx_HAL_Driver/Src/stm32l0xx_hal_rcc_ex.c **** }
 504              		.loc 1 295 1 view .LVU142
 505              		@ sp needed
 506              	.LVL24:
 507              		.loc 1 295 1 view .LVU143
 508 0212 70BD     		pop	{r4, r5, r6, pc}
 509              	.L48:
 510              		.align	2
 511              	.L47:
 512 0214 00100240 		.word	1073876992
 513 0218 00700040 		.word	1073770496
 514 021c FFFFFCFF 		.word	-196609
 515 0220 FFFFF7FF 		.word	-524289
 516 0224 FFF3FFFF 		.word	-3073
 517 0228 FFCFFFFF 		.word	-12289
 518 022c FFFFFFFB 		.word	-67108865
 519 0230 FFFFF3FF 		.word	-786433
 520 0234 88130000 		.word	5000
 521 0238 FFFFCFFF 		.word	-3145729
 522 023c FFFFFFEF 		.word	-268435457
 523              		.cfi_endproc
 524              	.LFE47:
 526              		.section	.text.HAL_RCCEx_GetPeriphCLKConfig,"ax",%progbits
 527              		.align	1
ARM GAS  /tmp/cc6QWq81.s 			page 16


 528              		.global	HAL_RCCEx_GetPeriphCLKConfig
 529              		.syntax unified
 530              		.code	16
 531              		.thumb_func
 533              	HAL_RCCEx_GetPeriphCLKConfig:
 534              	.LVL25:
 535              	.LFB48:
 296:Drivers/STM32L0xx_HAL_Driver/Src/stm32l0xx_hal_rcc_ex.c **** 
 297:Drivers/STM32L0xx_HAL_Driver/Src/stm32l0xx_hal_rcc_ex.c **** /**
 298:Drivers/STM32L0xx_HAL_Driver/Src/stm32l0xx_hal_rcc_ex.c ****   * @brief  Get the PeriphClkInit according to the internal RCC configuration registers.
 299:Drivers/STM32L0xx_HAL_Driver/Src/stm32l0xx_hal_rcc_ex.c ****   * @param  PeriphClkInit pointer to an RCC_PeriphCLKInitTypeDef structure that
 300:Drivers/STM32L0xx_HAL_Driver/Src/stm32l0xx_hal_rcc_ex.c ****   *         returns the configuration information for the Extended Peripherals clocks(USART1,USART2
 301:Drivers/STM32L0xx_HAL_Driver/Src/stm32l0xx_hal_rcc_ex.c ****   *         I2C1, I2C3, RTC, USB/RNG  and LPTIM1 clocks).
 302:Drivers/STM32L0xx_HAL_Driver/Src/stm32l0xx_hal_rcc_ex.c ****   * @retval None
 303:Drivers/STM32L0xx_HAL_Driver/Src/stm32l0xx_hal_rcc_ex.c ****   */
 304:Drivers/STM32L0xx_HAL_Driver/Src/stm32l0xx_hal_rcc_ex.c **** void HAL_RCCEx_GetPeriphCLKConfig(RCC_PeriphCLKInitTypeDef  *PeriphClkInit)
 305:Drivers/STM32L0xx_HAL_Driver/Src/stm32l0xx_hal_rcc_ex.c **** {
 536              		.loc 1 305 1 is_stmt 1 view -0
 537              		.cfi_startproc
 538              		@ args = 0, pretend = 0, frame = 0
 539              		@ frame_needed = 0, uses_anonymous_args = 0
 540              		@ link register save eliminated.
 306:Drivers/STM32L0xx_HAL_Driver/Src/stm32l0xx_hal_rcc_ex.c ****   uint32_t srcclk;
 541              		.loc 1 306 3 view .LVU145
 307:Drivers/STM32L0xx_HAL_Driver/Src/stm32l0xx_hal_rcc_ex.c **** 
 308:Drivers/STM32L0xx_HAL_Driver/Src/stm32l0xx_hal_rcc_ex.c ****    /* Set all possible values for the extended clock type parameter -----------*/
 309:Drivers/STM32L0xx_HAL_Driver/Src/stm32l0xx_hal_rcc_ex.c ****   /* Common part first */
 310:Drivers/STM32L0xx_HAL_Driver/Src/stm32l0xx_hal_rcc_ex.c ****   PeriphClkInit->PeriphClockSelection = RCC_PERIPHCLK_USART2 | RCC_PERIPHCLK_LPUART1 | \
 542              		.loc 1 310 3 view .LVU146
 543              		.loc 1 310 39 is_stmt 0 view .LVU147
 544 0000 AE23     		movs	r3, #174
 545 0002 0360     		str	r3, [r0]
 311:Drivers/STM32L0xx_HAL_Driver/Src/stm32l0xx_hal_rcc_ex.c ****                                         RCC_PERIPHCLK_I2C1   | RCC_PERIPHCLK_RTC     | \
 312:Drivers/STM32L0xx_HAL_Driver/Src/stm32l0xx_hal_rcc_ex.c ****                                         RCC_PERIPHCLK_LPTIM1;
 313:Drivers/STM32L0xx_HAL_Driver/Src/stm32l0xx_hal_rcc_ex.c **** #if defined(RCC_CCIPR_USART1SEL)
 314:Drivers/STM32L0xx_HAL_Driver/Src/stm32l0xx_hal_rcc_ex.c ****   PeriphClkInit->PeriphClockSelection |= RCC_PERIPHCLK_USART1;
 546              		.loc 1 314 3 is_stmt 1 view .LVU148
 547              		.loc 1 314 39 is_stmt 0 view .LVU149
 548 0004 0133     		adds	r3, r3, #1
 549 0006 0360     		str	r3, [r0]
 315:Drivers/STM32L0xx_HAL_Driver/Src/stm32l0xx_hal_rcc_ex.c **** #endif /* RCC_CCIPR_USART1SEL */
 316:Drivers/STM32L0xx_HAL_Driver/Src/stm32l0xx_hal_rcc_ex.c **** #if  defined(RCC_CCIPR_I2C3SEL)
 317:Drivers/STM32L0xx_HAL_Driver/Src/stm32l0xx_hal_rcc_ex.c ****   PeriphClkInit->PeriphClockSelection |= RCC_PERIPHCLK_I2C3;
 318:Drivers/STM32L0xx_HAL_Driver/Src/stm32l0xx_hal_rcc_ex.c **** #endif /* RCC_CCIPR_I2C3SEL */
 319:Drivers/STM32L0xx_HAL_Driver/Src/stm32l0xx_hal_rcc_ex.c **** #if defined(USB)
 320:Drivers/STM32L0xx_HAL_Driver/Src/stm32l0xx_hal_rcc_ex.c ****   PeriphClkInit->PeriphClockSelection |= RCC_PERIPHCLK_USB;
 550              		.loc 1 320 3 is_stmt 1 view .LVU150
 551              		.loc 1 320 39 is_stmt 0 view .LVU151
 552 0008 4033     		adds	r3, r3, #64
 553 000a 0360     		str	r3, [r0]
 321:Drivers/STM32L0xx_HAL_Driver/Src/stm32l0xx_hal_rcc_ex.c **** #endif /* USB */
 322:Drivers/STM32L0xx_HAL_Driver/Src/stm32l0xx_hal_rcc_ex.c **** #if defined(LCD)
 323:Drivers/STM32L0xx_HAL_Driver/Src/stm32l0xx_hal_rcc_ex.c ****   PeriphClkInit->PeriphClockSelection |= RCC_PERIPHCLK_LCD;
 554              		.loc 1 323 3 is_stmt 1 view .LVU152
 555              		.loc 1 323 39 is_stmt 0 view .LVU153
 556 000c 1B4B     		ldr	r3, .L52
 557 000e 0360     		str	r3, [r0]
ARM GAS  /tmp/cc6QWq81.s 			page 17


 324:Drivers/STM32L0xx_HAL_Driver/Src/stm32l0xx_hal_rcc_ex.c **** #endif /* LCD */
 325:Drivers/STM32L0xx_HAL_Driver/Src/stm32l0xx_hal_rcc_ex.c **** 
 326:Drivers/STM32L0xx_HAL_Driver/Src/stm32l0xx_hal_rcc_ex.c ****   /* Get the RTC/LCD configuration -----------------------------------------------*/
 327:Drivers/STM32L0xx_HAL_Driver/Src/stm32l0xx_hal_rcc_ex.c ****   srcclk = __HAL_RCC_GET_RTC_SOURCE();
 558              		.loc 1 327 3 is_stmt 1 view .LVU154
 559              		.loc 1 327 12 is_stmt 0 view .LVU155
 560 0010 1B4B     		ldr	r3, .L52+4
 561 0012 1B6D     		ldr	r3, [r3, #80]
 562              		.loc 1 327 10 view .LVU156
 563 0014 C022     		movs	r2, #192
 564 0016 9202     		lsls	r2, r2, #10
 565 0018 1340     		ands	r3, r2
 566              	.LVL26:
 328:Drivers/STM32L0xx_HAL_Driver/Src/stm32l0xx_hal_rcc_ex.c ****   if (srcclk != RCC_RTCCLKSOURCE_HSE_DIV2)
 567              		.loc 1 328 3 is_stmt 1 view .LVU157
 568              		.loc 1 328 6 is_stmt 0 view .LVU158
 569 001a 9342     		cmp	r3, r2
 570 001c 25D0     		beq	.L50
 329:Drivers/STM32L0xx_HAL_Driver/Src/stm32l0xx_hal_rcc_ex.c ****   {
 330:Drivers/STM32L0xx_HAL_Driver/Src/stm32l0xx_hal_rcc_ex.c ****     /* Source clock is LSE or LSI*/
 331:Drivers/STM32L0xx_HAL_Driver/Src/stm32l0xx_hal_rcc_ex.c ****     PeriphClkInit->RTCClockSelection = srcclk;
 571              		.loc 1 331 5 is_stmt 1 view .LVU159
 572              		.loc 1 331 38 is_stmt 0 view .LVU160
 573 001e 4360     		str	r3, [r0, #4]
 574              	.LVL27:
 575              	.L51:
 332:Drivers/STM32L0xx_HAL_Driver/Src/stm32l0xx_hal_rcc_ex.c ****   }
 333:Drivers/STM32L0xx_HAL_Driver/Src/stm32l0xx_hal_rcc_ex.c ****   else
 334:Drivers/STM32L0xx_HAL_Driver/Src/stm32l0xx_hal_rcc_ex.c ****   {
 335:Drivers/STM32L0xx_HAL_Driver/Src/stm32l0xx_hal_rcc_ex.c ****     /* Source clock is HSE. Need to get the prescaler value*/
 336:Drivers/STM32L0xx_HAL_Driver/Src/stm32l0xx_hal_rcc_ex.c ****     PeriphClkInit->RTCClockSelection = srcclk | (READ_BIT(RCC->CR, RCC_CR_RTCPRE));
 337:Drivers/STM32L0xx_HAL_Driver/Src/stm32l0xx_hal_rcc_ex.c ****   }
 338:Drivers/STM32L0xx_HAL_Driver/Src/stm32l0xx_hal_rcc_ex.c **** #if defined(LCD)
 339:Drivers/STM32L0xx_HAL_Driver/Src/stm32l0xx_hal_rcc_ex.c ****   PeriphClkInit->LCDClockSelection = PeriphClkInit->RTCClockSelection;
 576              		.loc 1 339 3 is_stmt 1 view .LVU161
 577              		.loc 1 339 51 is_stmt 0 view .LVU162
 578 0020 4368     		ldr	r3, [r0, #4]
 579              		.loc 1 339 36 view .LVU163
 580 0022 8360     		str	r3, [r0, #8]
 340:Drivers/STM32L0xx_HAL_Driver/Src/stm32l0xx_hal_rcc_ex.c **** #endif /* LCD */
 341:Drivers/STM32L0xx_HAL_Driver/Src/stm32l0xx_hal_rcc_ex.c **** #if defined(RCC_CCIPR_USART1SEL)
 342:Drivers/STM32L0xx_HAL_Driver/Src/stm32l0xx_hal_rcc_ex.c ****   /* Get the USART1 configuration --------------------------------------------*/
 343:Drivers/STM32L0xx_HAL_Driver/Src/stm32l0xx_hal_rcc_ex.c ****   PeriphClkInit->Usart1ClockSelection  = __HAL_RCC_GET_USART1_SOURCE();
 581              		.loc 1 343 3 is_stmt 1 view .LVU164
 582              		.loc 1 343 42 is_stmt 0 view .LVU165
 583 0024 164B     		ldr	r3, .L52+4
 584 0026 D96C     		ldr	r1, [r3, #76]
 585 0028 0322     		movs	r2, #3
 586 002a 0A40     		ands	r2, r1
 587              		.loc 1 343 40 view .LVU166
 588 002c C260     		str	r2, [r0, #12]
 344:Drivers/STM32L0xx_HAL_Driver/Src/stm32l0xx_hal_rcc_ex.c **** #endif /* RCC_CCIPR_USART1SEL */
 345:Drivers/STM32L0xx_HAL_Driver/Src/stm32l0xx_hal_rcc_ex.c ****   /* Get the USART2 clock source ---------------------------------------------*/
 346:Drivers/STM32L0xx_HAL_Driver/Src/stm32l0xx_hal_rcc_ex.c ****   PeriphClkInit->Usart2ClockSelection  = __HAL_RCC_GET_USART2_SOURCE();
 589              		.loc 1 346 3 is_stmt 1 view .LVU167
 590              		.loc 1 346 42 is_stmt 0 view .LVU168
 591 002e D96C     		ldr	r1, [r3, #76]
ARM GAS  /tmp/cc6QWq81.s 			page 18


 592 0030 0C22     		movs	r2, #12
 593 0032 0A40     		ands	r2, r1
 594              		.loc 1 346 40 view .LVU169
 595 0034 0261     		str	r2, [r0, #16]
 347:Drivers/STM32L0xx_HAL_Driver/Src/stm32l0xx_hal_rcc_ex.c ****   /* Get the LPUART1 clock source ---------------------------------------------*/
 348:Drivers/STM32L0xx_HAL_Driver/Src/stm32l0xx_hal_rcc_ex.c ****   PeriphClkInit->Lpuart1ClockSelection = __HAL_RCC_GET_LPUART1_SOURCE();
 596              		.loc 1 348 3 is_stmt 1 view .LVU170
 597              		.loc 1 348 42 is_stmt 0 view .LVU171
 598 0036 DA6C     		ldr	r2, [r3, #76]
 599 0038 C021     		movs	r1, #192
 600 003a 0901     		lsls	r1, r1, #4
 601 003c 0A40     		ands	r2, r1
 602              		.loc 1 348 40 view .LVU172
 603 003e 4261     		str	r2, [r0, #20]
 349:Drivers/STM32L0xx_HAL_Driver/Src/stm32l0xx_hal_rcc_ex.c ****   /* Get the I2C1 clock source -----------------------------------------------*/
 350:Drivers/STM32L0xx_HAL_Driver/Src/stm32l0xx_hal_rcc_ex.c ****   PeriphClkInit->I2c1ClockSelection    = __HAL_RCC_GET_I2C1_SOURCE();
 604              		.loc 1 350 3 is_stmt 1 view .LVU173
 605              		.loc 1 350 42 is_stmt 0 view .LVU174
 606 0040 DA6C     		ldr	r2, [r3, #76]
 607 0042 C021     		movs	r1, #192
 608 0044 8901     		lsls	r1, r1, #6
 609 0046 0A40     		ands	r2, r1
 610              		.loc 1 350 40 view .LVU175
 611 0048 8261     		str	r2, [r0, #24]
 351:Drivers/STM32L0xx_HAL_Driver/Src/stm32l0xx_hal_rcc_ex.c **** #if defined(RCC_CCIPR_I2C3SEL)
 352:Drivers/STM32L0xx_HAL_Driver/Src/stm32l0xx_hal_rcc_ex.c **** /* Get the I2C3 clock source -----------------------------------------------*/
 353:Drivers/STM32L0xx_HAL_Driver/Src/stm32l0xx_hal_rcc_ex.c ****   PeriphClkInit->I2c3ClockSelection    = __HAL_RCC_GET_I2C3_SOURCE();
 354:Drivers/STM32L0xx_HAL_Driver/Src/stm32l0xx_hal_rcc_ex.c **** #endif /* RCC_CCIPR_I2C3SEL */
 355:Drivers/STM32L0xx_HAL_Driver/Src/stm32l0xx_hal_rcc_ex.c ****   /* Get the LPTIM1 clock source -----------------------------------------------*/
 356:Drivers/STM32L0xx_HAL_Driver/Src/stm32l0xx_hal_rcc_ex.c ****   PeriphClkInit->LptimClockSelection   = __HAL_RCC_GET_LPTIM1_SOURCE();
 612              		.loc 1 356 3 is_stmt 1 view .LVU176
 613              		.loc 1 356 42 is_stmt 0 view .LVU177
 614 004a DA6C     		ldr	r2, [r3, #76]
 615 004c C021     		movs	r1, #192
 616 004e 0903     		lsls	r1, r1, #12
 617 0050 0A40     		ands	r2, r1
 618              		.loc 1 356 40 view .LVU178
 619 0052 C261     		str	r2, [r0, #28]
 357:Drivers/STM32L0xx_HAL_Driver/Src/stm32l0xx_hal_rcc_ex.c ****   /* Get the RTC clock source -----------------------------------------------*/
 358:Drivers/STM32L0xx_HAL_Driver/Src/stm32l0xx_hal_rcc_ex.c ****   PeriphClkInit->RTCClockSelection     = __HAL_RCC_GET_RTC_SOURCE();
 620              		.loc 1 358 3 is_stmt 1 view .LVU179
 621              		.loc 1 358 42 is_stmt 0 view .LVU180
 622 0054 1A6D     		ldr	r2, [r3, #80]
 623 0056 C021     		movs	r1, #192
 624 0058 8902     		lsls	r1, r1, #10
 625 005a 0A40     		ands	r2, r1
 626              		.loc 1 358 40 view .LVU181
 627 005c 4260     		str	r2, [r0, #4]
 359:Drivers/STM32L0xx_HAL_Driver/Src/stm32l0xx_hal_rcc_ex.c **** #if defined(USB)
 360:Drivers/STM32L0xx_HAL_Driver/Src/stm32l0xx_hal_rcc_ex.c ****   /* Get the USB/RNG clock source -----------------------------------------------*/
 361:Drivers/STM32L0xx_HAL_Driver/Src/stm32l0xx_hal_rcc_ex.c ****   PeriphClkInit->UsbClockSelection     = __HAL_RCC_GET_USB_SOURCE();
 628              		.loc 1 361 3 is_stmt 1 view .LVU182
 629              		.loc 1 361 42 is_stmt 0 view .LVU183
 630 005e DB6C     		ldr	r3, [r3, #76]
 631 0060 8022     		movs	r2, #128
 632 0062 D204     		lsls	r2, r2, #19
 633 0064 1340     		ands	r3, r2
ARM GAS  /tmp/cc6QWq81.s 			page 19


 634              		.loc 1 361 40 view .LVU184
 635 0066 0362     		str	r3, [r0, #32]
 362:Drivers/STM32L0xx_HAL_Driver/Src/stm32l0xx_hal_rcc_ex.c **** #endif /* USB */
 363:Drivers/STM32L0xx_HAL_Driver/Src/stm32l0xx_hal_rcc_ex.c **** }
 636              		.loc 1 363 1 view .LVU185
 637              		@ sp needed
 638 0068 7047     		bx	lr
 639              	.LVL28:
 640              	.L50:
 336:Drivers/STM32L0xx_HAL_Driver/Src/stm32l0xx_hal_rcc_ex.c ****   }
 641              		.loc 1 336 5 is_stmt 1 view .LVU186
 336:Drivers/STM32L0xx_HAL_Driver/Src/stm32l0xx_hal_rcc_ex.c ****   }
 642              		.loc 1 336 50 is_stmt 0 view .LVU187
 643 006a 054A     		ldr	r2, .L52+4
 644 006c 1268     		ldr	r2, [r2]
 645 006e C021     		movs	r1, #192
 646 0070 8903     		lsls	r1, r1, #14
 647 0072 0A40     		ands	r2, r1
 336:Drivers/STM32L0xx_HAL_Driver/Src/stm32l0xx_hal_rcc_ex.c ****   }
 648              		.loc 1 336 47 view .LVU188
 649 0074 1343     		orrs	r3, r2
 650              	.LVL29:
 336:Drivers/STM32L0xx_HAL_Driver/Src/stm32l0xx_hal_rcc_ex.c ****   }
 651              		.loc 1 336 38 view .LVU189
 652 0076 4360     		str	r3, [r0, #4]
 653 0078 D2E7     		b	.L51
 654              	.L53:
 655 007a C046     		.align	2
 656              	.L52:
 657 007c EF080000 		.word	2287
 658 0080 00100240 		.word	1073876992
 659              		.cfi_endproc
 660              	.LFE48:
 662              		.global	__aeabi_uidiv
 663              		.section	.text.HAL_RCCEx_GetPeriphCLKFreq,"ax",%progbits
 664              		.align	1
 665              		.global	HAL_RCCEx_GetPeriphCLKFreq
 666              		.syntax unified
 667              		.code	16
 668              		.thumb_func
 670              	HAL_RCCEx_GetPeriphCLKFreq:
 671              	.LVL30:
 672              	.LFB49:
 364:Drivers/STM32L0xx_HAL_Driver/Src/stm32l0xx_hal_rcc_ex.c **** 
 365:Drivers/STM32L0xx_HAL_Driver/Src/stm32l0xx_hal_rcc_ex.c **** /**
 366:Drivers/STM32L0xx_HAL_Driver/Src/stm32l0xx_hal_rcc_ex.c ****   * @brief  Return the peripheral clock frequency
 367:Drivers/STM32L0xx_HAL_Driver/Src/stm32l0xx_hal_rcc_ex.c ****   * @note   Return 0 if peripheral clock is unknown
 368:Drivers/STM32L0xx_HAL_Driver/Src/stm32l0xx_hal_rcc_ex.c ****   * @param  PeriphClk Peripheral clock identifier
 369:Drivers/STM32L0xx_HAL_Driver/Src/stm32l0xx_hal_rcc_ex.c ****   *         This parameter can be one of the following values:
 370:Drivers/STM32L0xx_HAL_Driver/Src/stm32l0xx_hal_rcc_ex.c ****   *            @arg @ref RCC_PERIPHCLK_RTC      RTC peripheral clock
 371:Drivers/STM32L0xx_HAL_Driver/Src/stm32l0xx_hal_rcc_ex.c ****   *            @arg @ref RCC_PERIPHCLK_LCD      LCD peripheral clock (*)
 372:Drivers/STM32L0xx_HAL_Driver/Src/stm32l0xx_hal_rcc_ex.c ****   *            @arg @ref RCC_PERIPHCLK_USB      USB or RNG peripheral clock (*)
 373:Drivers/STM32L0xx_HAL_Driver/Src/stm32l0xx_hal_rcc_ex.c ****   *            @arg @ref RCC_PERIPHCLK_USART1   USART1 peripheral clock (*)
 374:Drivers/STM32L0xx_HAL_Driver/Src/stm32l0xx_hal_rcc_ex.c ****   *            @arg @ref RCC_PERIPHCLK_USART2   USART2 peripheral clock
 375:Drivers/STM32L0xx_HAL_Driver/Src/stm32l0xx_hal_rcc_ex.c ****   *            @arg @ref RCC_PERIPHCLK_LPUART1  LPUART1 peripheral clock
 376:Drivers/STM32L0xx_HAL_Driver/Src/stm32l0xx_hal_rcc_ex.c ****   *            @arg @ref RCC_PERIPHCLK_I2C1     I2C1 peripheral clock
 377:Drivers/STM32L0xx_HAL_Driver/Src/stm32l0xx_hal_rcc_ex.c ****   *            @arg @ref RCC_PERIPHCLK_I2C2     I2C2 peripheral clock (*)
ARM GAS  /tmp/cc6QWq81.s 			page 20


 378:Drivers/STM32L0xx_HAL_Driver/Src/stm32l0xx_hal_rcc_ex.c ****   *            @arg @ref RCC_PERIPHCLK_I2C3     I2C3 peripheral clock (*)
 379:Drivers/STM32L0xx_HAL_Driver/Src/stm32l0xx_hal_rcc_ex.c ****   * @note   (*) means that this peripheral is not present on all the devices
 380:Drivers/STM32L0xx_HAL_Driver/Src/stm32l0xx_hal_rcc_ex.c ****   * @retval Frequency in Hz (0: means that no available frequency for the peripheral)
 381:Drivers/STM32L0xx_HAL_Driver/Src/stm32l0xx_hal_rcc_ex.c ****   */
 382:Drivers/STM32L0xx_HAL_Driver/Src/stm32l0xx_hal_rcc_ex.c **** uint32_t HAL_RCCEx_GetPeriphCLKFreq(uint32_t PeriphClk)
 383:Drivers/STM32L0xx_HAL_Driver/Src/stm32l0xx_hal_rcc_ex.c **** {
 673              		.loc 1 383 1 is_stmt 1 view -0
 674              		.cfi_startproc
 675              		@ args = 0, pretend = 0, frame = 0
 676              		@ frame_needed = 0, uses_anonymous_args = 0
 677              		.loc 1 383 1 is_stmt 0 view .LVU191
 678 0000 10B5     		push	{r4, lr}
 679              	.LCFI1:
 680              		.cfi_def_cfa_offset 8
 681              		.cfi_offset 4, -8
 682              		.cfi_offset 14, -4
 384:Drivers/STM32L0xx_HAL_Driver/Src/stm32l0xx_hal_rcc_ex.c ****   uint32_t frequency = 0U;
 683              		.loc 1 384 3 is_stmt 1 view .LVU192
 684              	.LVL31:
 385:Drivers/STM32L0xx_HAL_Driver/Src/stm32l0xx_hal_rcc_ex.c ****   uint32_t temp_reg, clkprediv, srcclk;    /* no init needed */
 685              		.loc 1 385 3 view .LVU193
 386:Drivers/STM32L0xx_HAL_Driver/Src/stm32l0xx_hal_rcc_ex.c **** #if defined(USB)
 387:Drivers/STM32L0xx_HAL_Driver/Src/stm32l0xx_hal_rcc_ex.c ****   uint32_t pllmul, plldiv, pllvco;    /* no init needed */
 686              		.loc 1 387 3 view .LVU194
 388:Drivers/STM32L0xx_HAL_Driver/Src/stm32l0xx_hal_rcc_ex.c **** #endif /* USB */
 389:Drivers/STM32L0xx_HAL_Driver/Src/stm32l0xx_hal_rcc_ex.c **** 
 390:Drivers/STM32L0xx_HAL_Driver/Src/stm32l0xx_hal_rcc_ex.c ****   /* Check the parameters */
 391:Drivers/STM32L0xx_HAL_Driver/Src/stm32l0xx_hal_rcc_ex.c ****   assert_param(IS_RCC_PERIPHCLOCK(PeriphClk));
 687              		.loc 1 391 3 view .LVU195
 392:Drivers/STM32L0xx_HAL_Driver/Src/stm32l0xx_hal_rcc_ex.c **** 
 393:Drivers/STM32L0xx_HAL_Driver/Src/stm32l0xx_hal_rcc_ex.c ****   switch (PeriphClk)
 688              		.loc 1 393 3 view .LVU196
 689 0002 2028     		cmp	r0, #32
 690 0004 09D8     		bhi	.L55
 691 0006 0028     		cmp	r0, #0
 692 0008 00D1     		bne	.LCB610
 693 000a 43E1     		b	.L80	@long jump
 694              	.LCB610:
 695 000c 2028     		cmp	r0, #32
 696 000e 00D9     		bls	.LCB612
 697 0010 42E1     		b	.L81	@long jump
 698              	.LCB612:
 699 0012 8000     		lsls	r0, r0, #2
 700              	.LVL32:
 701              		.loc 1 393 3 is_stmt 0 view .LVU197
 702 0014 A84B     		ldr	r3, .L122
 703 0016 1B58     		ldr	r3, [r3, r0]
 704 0018 9F46     		mov	pc, r3
 705              		.section	.rodata.HAL_RCCEx_GetPeriphCLKFreq,"a",%progbits
 706              		.align	2
 707              	.L58:
 708 0000 98020000 		.word	.L81
 709 0004 10010000 		.word	.L63
 710 0008 70010000 		.word	.L62
 711 000c 98020000 		.word	.L81
 712 0010 CC010000 		.word	.L61
 713 0014 98020000 		.word	.L81
ARM GAS  /tmp/cc6QWq81.s 			page 21


 714 0018 98020000 		.word	.L81
 715 001c 98020000 		.word	.L81
 716 0020 34020000 		.word	.L60
 717 0024 98020000 		.word	.L81
 718 0028 98020000 		.word	.L81
 719 002c 98020000 		.word	.L81
 720 0030 98020000 		.word	.L81
 721 0034 98020000 		.word	.L81
 722 0038 98020000 		.word	.L81
 723 003c 98020000 		.word	.L81
 724 0040 7E020000 		.word	.L59
 725 0044 98020000 		.word	.L81
 726 0048 98020000 		.word	.L81
 727 004c 98020000 		.word	.L81
 728 0050 98020000 		.word	.L81
 729 0054 98020000 		.word	.L81
 730 0058 98020000 		.word	.L81
 731 005c 98020000 		.word	.L81
 732 0060 98020000 		.word	.L81
 733 0064 98020000 		.word	.L81
 734 0068 98020000 		.word	.L81
 735 006c 98020000 		.word	.L81
 736 0070 98020000 		.word	.L81
 737 0074 98020000 		.word	.L81
 738 0078 98020000 		.word	.L81
 739 007c 98020000 		.word	.L81
 740 0080 28000000 		.word	.L57
 741              		.section	.text.HAL_RCCEx_GetPeriphCLKFreq
 742              	.LVL33:
 743              	.L55:
 744              		.loc 1 393 3 view .LVU198
 745 001a 4028     		cmp	r0, #64
 746 001c 45D0     		beq	.L64
 747 001e 8023     		movs	r3, #128
 748 0020 1B01     		lsls	r3, r3, #4
 749 0022 9842     		cmp	r0, r3
 750 0024 00D0     		beq	.LCB631
 751 0026 39E1     		b	.L82	@long jump
 752              	.LCB631:
 753              	.LVL34:
 754              	.L57:
 394:Drivers/STM32L0xx_HAL_Driver/Src/stm32l0xx_hal_rcc_ex.c ****   {
 395:Drivers/STM32L0xx_HAL_Driver/Src/stm32l0xx_hal_rcc_ex.c ****   case RCC_PERIPHCLK_RTC:
 396:Drivers/STM32L0xx_HAL_Driver/Src/stm32l0xx_hal_rcc_ex.c **** #if defined(LCD)
 397:Drivers/STM32L0xx_HAL_Driver/Src/stm32l0xx_hal_rcc_ex.c ****   case RCC_PERIPHCLK_LCD:
 398:Drivers/STM32L0xx_HAL_Driver/Src/stm32l0xx_hal_rcc_ex.c **** #endif /* LCD */
 399:Drivers/STM32L0xx_HAL_Driver/Src/stm32l0xx_hal_rcc_ex.c ****     {
 400:Drivers/STM32L0xx_HAL_Driver/Src/stm32l0xx_hal_rcc_ex.c ****       /* Get RCC CSR configuration ------------------------------------------------------*/
 401:Drivers/STM32L0xx_HAL_Driver/Src/stm32l0xx_hal_rcc_ex.c ****       temp_reg = RCC->CSR;
 755              		.loc 1 401 7 is_stmt 1 view .LVU199
 756              		.loc 1 401 16 is_stmt 0 view .LVU200
 757 0028 A44B     		ldr	r3, .L122+4
 758 002a 196D     		ldr	r1, [r3, #80]
 759              	.LVL35:
 402:Drivers/STM32L0xx_HAL_Driver/Src/stm32l0xx_hal_rcc_ex.c **** 
 403:Drivers/STM32L0xx_HAL_Driver/Src/stm32l0xx_hal_rcc_ex.c ****       /* Get the current RTC source */
 404:Drivers/STM32L0xx_HAL_Driver/Src/stm32l0xx_hal_rcc_ex.c ****       srcclk = __HAL_RCC_GET_RTC_SOURCE();
ARM GAS  /tmp/cc6QWq81.s 			page 22


 760              		.loc 1 404 7 is_stmt 1 view .LVU201
 761              		.loc 1 404 16 is_stmt 0 view .LVU202
 762 002c 1B6D     		ldr	r3, [r3, #80]
 763              		.loc 1 404 14 view .LVU203
 764 002e C022     		movs	r2, #192
 765 0030 9202     		lsls	r2, r2, #10
 766 0032 1340     		ands	r3, r2
 767              	.LVL36:
 405:Drivers/STM32L0xx_HAL_Driver/Src/stm32l0xx_hal_rcc_ex.c **** 
 406:Drivers/STM32L0xx_HAL_Driver/Src/stm32l0xx_hal_rcc_ex.c ****       /* Check if LSE is ready if RTC clock selection is LSE */
 407:Drivers/STM32L0xx_HAL_Driver/Src/stm32l0xx_hal_rcc_ex.c ****       if ((srcclk == RCC_RTCCLKSOURCE_LSE) && (HAL_IS_BIT_SET(temp_reg, RCC_CSR_LSERDY)))
 768              		.loc 1 407 7 is_stmt 1 view .LVU204
 769              		.loc 1 407 10 is_stmt 0 view .LVU205
 770 0034 8022     		movs	r2, #128
 771 0036 5202     		lsls	r2, r2, #9
 772 0038 9342     		cmp	r3, r2
 773 003a 09D0     		beq	.L103
 774              	.L65:
 408:Drivers/STM32L0xx_HAL_Driver/Src/stm32l0xx_hal_rcc_ex.c ****       {
 409:Drivers/STM32L0xx_HAL_Driver/Src/stm32l0xx_hal_rcc_ex.c ****         frequency = LSE_VALUE;
 410:Drivers/STM32L0xx_HAL_Driver/Src/stm32l0xx_hal_rcc_ex.c ****       }
 411:Drivers/STM32L0xx_HAL_Driver/Src/stm32l0xx_hal_rcc_ex.c ****       /* Check if LSI is ready if RTC clock selection is LSI */
 412:Drivers/STM32L0xx_HAL_Driver/Src/stm32l0xx_hal_rcc_ex.c ****       else if (srcclk == RCC_RTCCLKSOURCE_LSI)
 775              		.loc 1 412 12 is_stmt 1 view .LVU206
 776              		.loc 1 412 15 is_stmt 0 view .LVU207
 777 003c 8022     		movs	r2, #128
 778 003e 9202     		lsls	r2, r2, #10
 779 0040 9342     		cmp	r3, r2
 780 0042 0AD0     		beq	.L104
 413:Drivers/STM32L0xx_HAL_Driver/Src/stm32l0xx_hal_rcc_ex.c ****       {
 414:Drivers/STM32L0xx_HAL_Driver/Src/stm32l0xx_hal_rcc_ex.c ****         if (HAL_IS_BIT_SET(temp_reg, RCC_CSR_LSIRDY))
 415:Drivers/STM32L0xx_HAL_Driver/Src/stm32l0xx_hal_rcc_ex.c ****         {
 416:Drivers/STM32L0xx_HAL_Driver/Src/stm32l0xx_hal_rcc_ex.c ****           frequency = LSI_VALUE;
 417:Drivers/STM32L0xx_HAL_Driver/Src/stm32l0xx_hal_rcc_ex.c ****         }
 418:Drivers/STM32L0xx_HAL_Driver/Src/stm32l0xx_hal_rcc_ex.c ****       }
 419:Drivers/STM32L0xx_HAL_Driver/Src/stm32l0xx_hal_rcc_ex.c ****       /* Check if HSE is ready and if RTC clock selection is HSE */
 420:Drivers/STM32L0xx_HAL_Driver/Src/stm32l0xx_hal_rcc_ex.c ****       else if (srcclk == RCC_RTCCLKSOURCE_HSE_DIVX)
 781              		.loc 1 420 12 is_stmt 1 view .LVU208
 782              		.loc 1 420 15 is_stmt 0 view .LVU209
 783 0044 C022     		movs	r2, #192
 784 0046 9202     		lsls	r2, r2, #10
 785 0048 9342     		cmp	r3, r2
 786 004a 0ED0     		beq	.L105
 384:Drivers/STM32L0xx_HAL_Driver/Src/stm32l0xx_hal_rcc_ex.c ****   uint32_t temp_reg, clkprediv, srcclk;    /* no init needed */
 787              		.loc 1 384 12 view .LVU210
 788 004c 0020     		movs	r0, #0
 789 004e 24E1     		b	.L54
 790              	.L103:
 407:Drivers/STM32L0xx_HAL_Driver/Src/stm32l0xx_hal_rcc_ex.c ****       {
 791              		.loc 1 407 44 discriminator 1 view .LVU211
 792 0050 8A05     		lsls	r2, r1, #22
 793 0052 F3D5     		bpl	.L65
 409:Drivers/STM32L0xx_HAL_Driver/Src/stm32l0xx_hal_rcc_ex.c ****       }
 794              		.loc 1 409 19 view .LVU212
 795 0054 8020     		movs	r0, #128
 796 0056 0002     		lsls	r0, r0, #8
 797 0058 1FE1     		b	.L54
ARM GAS  /tmp/cc6QWq81.s 			page 23


 798              	.L104:
 414:Drivers/STM32L0xx_HAL_Driver/Src/stm32l0xx_hal_rcc_ex.c ****         {
 799              		.loc 1 414 9 is_stmt 1 view .LVU213
 414:Drivers/STM32L0xx_HAL_Driver/Src/stm32l0xx_hal_rcc_ex.c ****         {
 800              		.loc 1 414 13 is_stmt 0 view .LVU214
 801 005a 0223     		movs	r3, #2
 802              	.LVL37:
 414:Drivers/STM32L0xx_HAL_Driver/Src/stm32l0xx_hal_rcc_ex.c ****         {
 803              		.loc 1 414 13 view .LVU215
 804 005c 1800     		movs	r0, r3
 805 005e 0840     		ands	r0, r1
 414:Drivers/STM32L0xx_HAL_Driver/Src/stm32l0xx_hal_rcc_ex.c ****         {
 806              		.loc 1 414 12 view .LVU216
 807 0060 0B42     		tst	r3, r1
 808 0062 00D1     		bne	.LCB681
 809 0064 19E1     		b	.L54	@long jump
 810              	.LCB681:
 416:Drivers/STM32L0xx_HAL_Driver/Src/stm32l0xx_hal_rcc_ex.c ****         }
 811              		.loc 1 416 21 view .LVU217
 812 0066 9648     		ldr	r0, .L122+8
 813 0068 17E1     		b	.L54
 814              	.LVL38:
 815              	.L105:
 421:Drivers/STM32L0xx_HAL_Driver/Src/stm32l0xx_hal_rcc_ex.c ****       {
 422:Drivers/STM32L0xx_HAL_Driver/Src/stm32l0xx_hal_rcc_ex.c ****         if (HAL_IS_BIT_SET(RCC->CR, RCC_CR_HSERDY))
 816              		.loc 1 422 9 is_stmt 1 view .LVU218
 817              		.loc 1 422 13 is_stmt 0 view .LVU219
 818 006a 944B     		ldr	r3, .L122+4
 819              	.LVL39:
 820              		.loc 1 422 13 view .LVU220
 821 006c 1A68     		ldr	r2, [r3]
 822 006e 8023     		movs	r3, #128
 823 0070 9B02     		lsls	r3, r3, #10
 824 0072 1000     		movs	r0, r2
 825 0074 1840     		ands	r0, r3
 826              		.loc 1 422 12 view .LVU221
 827 0076 1A42     		tst	r2, r3
 828 0078 00D1     		bne	.LCB698
 829 007a 0EE1     		b	.L54	@long jump
 830              	.LCB698:
 423:Drivers/STM32L0xx_HAL_Driver/Src/stm32l0xx_hal_rcc_ex.c ****         {
 424:Drivers/STM32L0xx_HAL_Driver/Src/stm32l0xx_hal_rcc_ex.c ****           /* Get the current HSE clock divider */
 425:Drivers/STM32L0xx_HAL_Driver/Src/stm32l0xx_hal_rcc_ex.c ****           clkprediv = __HAL_RCC_GET_RTC_HSE_PRESCALER();
 831              		.loc 1 425 11 is_stmt 1 view .LVU222
 832              		.loc 1 425 23 is_stmt 0 view .LVU223
 833 007c 8F4B     		ldr	r3, .L122+4
 834 007e 1B68     		ldr	r3, [r3]
 835              		.loc 1 425 21 view .LVU224
 836 0080 C022     		movs	r2, #192
 837 0082 9203     		lsls	r2, r2, #14
 838 0084 1340     		ands	r3, r2
 839              	.LVL40:
 426:Drivers/STM32L0xx_HAL_Driver/Src/stm32l0xx_hal_rcc_ex.c **** 
 427:Drivers/STM32L0xx_HAL_Driver/Src/stm32l0xx_hal_rcc_ex.c ****           switch (clkprediv)
 840              		.loc 1 427 11 is_stmt 1 view .LVU225
 841 0086 8022     		movs	r2, #128
 842 0088 9203     		lsls	r2, r2, #14
ARM GAS  /tmp/cc6QWq81.s 			page 24


 843 008a 9342     		cmp	r3, r2
 844 008c 00D1     		bne	.LCB710
 845 008e 07E1     		b	.L86	@long jump
 846              	.LCB710:
 847 0090 C022     		movs	r2, #192
 848 0092 9203     		lsls	r2, r2, #14
 849 0094 9342     		cmp	r3, r2
 850 0096 00D1     		bne	.LCB714
 851 0098 04E1     		b	.L87	@long jump
 852              	.LCB714:
 853 009a 8022     		movs	r2, #128
 854 009c 5203     		lsls	r2, r2, #13
 855 009e 9342     		cmp	r3, r2
 856 00a0 01D0     		beq	.L106
 428:Drivers/STM32L0xx_HAL_Driver/Src/stm32l0xx_hal_rcc_ex.c ****           {
 429:Drivers/STM32L0xx_HAL_Driver/Src/stm32l0xx_hal_rcc_ex.c ****             case RCC_RTC_HSE_DIV_16:  /* HSE DIV16 has been selected */
 430:Drivers/STM32L0xx_HAL_Driver/Src/stm32l0xx_hal_rcc_ex.c ****             {
 431:Drivers/STM32L0xx_HAL_Driver/Src/stm32l0xx_hal_rcc_ex.c ****               frequency = HSE_VALUE / 16U;
 432:Drivers/STM32L0xx_HAL_Driver/Src/stm32l0xx_hal_rcc_ex.c ****               break;
 433:Drivers/STM32L0xx_HAL_Driver/Src/stm32l0xx_hal_rcc_ex.c ****             }
 434:Drivers/STM32L0xx_HAL_Driver/Src/stm32l0xx_hal_rcc_ex.c ****             case RCC_RTC_HSE_DIV_8:   /* HSE DIV8 has been selected  */
 435:Drivers/STM32L0xx_HAL_Driver/Src/stm32l0xx_hal_rcc_ex.c ****             {
 436:Drivers/STM32L0xx_HAL_Driver/Src/stm32l0xx_hal_rcc_ex.c ****               frequency = HSE_VALUE / 8U;
 437:Drivers/STM32L0xx_HAL_Driver/Src/stm32l0xx_hal_rcc_ex.c ****               break;
 438:Drivers/STM32L0xx_HAL_Driver/Src/stm32l0xx_hal_rcc_ex.c ****             }
 439:Drivers/STM32L0xx_HAL_Driver/Src/stm32l0xx_hal_rcc_ex.c ****             case RCC_RTC_HSE_DIV_4:   /* HSE DIV4 has been selected  */
 440:Drivers/STM32L0xx_HAL_Driver/Src/stm32l0xx_hal_rcc_ex.c ****             {
 441:Drivers/STM32L0xx_HAL_Driver/Src/stm32l0xx_hal_rcc_ex.c ****               frequency = HSE_VALUE / 4U;
 442:Drivers/STM32L0xx_HAL_Driver/Src/stm32l0xx_hal_rcc_ex.c ****               break;
 443:Drivers/STM32L0xx_HAL_Driver/Src/stm32l0xx_hal_rcc_ex.c ****             }
 444:Drivers/STM32L0xx_HAL_Driver/Src/stm32l0xx_hal_rcc_ex.c ****             default:                  /* HSE DIV2 has been selected  */
 445:Drivers/STM32L0xx_HAL_Driver/Src/stm32l0xx_hal_rcc_ex.c ****             {
 446:Drivers/STM32L0xx_HAL_Driver/Src/stm32l0xx_hal_rcc_ex.c ****               frequency = HSE_VALUE / 2U;
 857              		.loc 1 446 25 is_stmt 0 view .LVU226
 858 00a2 8848     		ldr	r0, .L122+12
 859 00a4 F9E0     		b	.L54
 860              	.L106:
 441:Drivers/STM32L0xx_HAL_Driver/Src/stm32l0xx_hal_rcc_ex.c ****               break;
 861              		.loc 1 441 25 view .LVU227
 862 00a6 8848     		ldr	r0, .L122+16
 863 00a8 F7E0     		b	.L54
 864              	.LVL41:
 865              	.L64:
 447:Drivers/STM32L0xx_HAL_Driver/Src/stm32l0xx_hal_rcc_ex.c ****               break;
 448:Drivers/STM32L0xx_HAL_Driver/Src/stm32l0xx_hal_rcc_ex.c ****             }
 449:Drivers/STM32L0xx_HAL_Driver/Src/stm32l0xx_hal_rcc_ex.c ****           }
 450:Drivers/STM32L0xx_HAL_Driver/Src/stm32l0xx_hal_rcc_ex.c ****         }
 451:Drivers/STM32L0xx_HAL_Driver/Src/stm32l0xx_hal_rcc_ex.c ****       }
 452:Drivers/STM32L0xx_HAL_Driver/Src/stm32l0xx_hal_rcc_ex.c ****       /* Clock not enabled for RTC */
 453:Drivers/STM32L0xx_HAL_Driver/Src/stm32l0xx_hal_rcc_ex.c ****       else
 454:Drivers/STM32L0xx_HAL_Driver/Src/stm32l0xx_hal_rcc_ex.c ****       {
 455:Drivers/STM32L0xx_HAL_Driver/Src/stm32l0xx_hal_rcc_ex.c ****         /* nothing to do: frequency already initialized to 0U */
 456:Drivers/STM32L0xx_HAL_Driver/Src/stm32l0xx_hal_rcc_ex.c ****       }
 457:Drivers/STM32L0xx_HAL_Driver/Src/stm32l0xx_hal_rcc_ex.c ****       break;
 458:Drivers/STM32L0xx_HAL_Driver/Src/stm32l0xx_hal_rcc_ex.c ****     }
 459:Drivers/STM32L0xx_HAL_Driver/Src/stm32l0xx_hal_rcc_ex.c **** #if defined(USB)
 460:Drivers/STM32L0xx_HAL_Driver/Src/stm32l0xx_hal_rcc_ex.c ****   case RCC_PERIPHCLK_USB:
ARM GAS  /tmp/cc6QWq81.s 			page 25


 461:Drivers/STM32L0xx_HAL_Driver/Src/stm32l0xx_hal_rcc_ex.c ****     {
 462:Drivers/STM32L0xx_HAL_Driver/Src/stm32l0xx_hal_rcc_ex.c ****       /* Get the current USB source */
 463:Drivers/STM32L0xx_HAL_Driver/Src/stm32l0xx_hal_rcc_ex.c ****       srcclk = __HAL_RCC_GET_USB_SOURCE();
 866              		.loc 1 463 7 is_stmt 1 view .LVU228
 867              		.loc 1 463 16 is_stmt 0 view .LVU229
 868 00aa 844B     		ldr	r3, .L122+4
 869 00ac DB6C     		ldr	r3, [r3, #76]
 870              	.LVL42:
 464:Drivers/STM32L0xx_HAL_Driver/Src/stm32l0xx_hal_rcc_ex.c **** 
 465:Drivers/STM32L0xx_HAL_Driver/Src/stm32l0xx_hal_rcc_ex.c ****       if (srcclk == RCC_USBCLKSOURCE_PLL)
 871              		.loc 1 465 7 is_stmt 1 view .LVU230
 872              		.loc 1 465 10 is_stmt 0 view .LVU231
 873 00ae 5B01     		lsls	r3, r3, #5
 874 00b0 24D4     		bmi	.L67
 875              	.LVL43:
 466:Drivers/STM32L0xx_HAL_Driver/Src/stm32l0xx_hal_rcc_ex.c ****       {
 467:Drivers/STM32L0xx_HAL_Driver/Src/stm32l0xx_hal_rcc_ex.c ****         if (HAL_IS_BIT_SET(RCC->CR, RCC_CR_PLLRDY))
 876              		.loc 1 467 9 is_stmt 1 view .LVU232
 877              		.loc 1 467 13 is_stmt 0 view .LVU233
 878 00b2 824B     		ldr	r3, .L122+4
 879 00b4 1A68     		ldr	r2, [r3]
 880 00b6 8023     		movs	r3, #128
 881 00b8 9B04     		lsls	r3, r3, #18
 882 00ba 1000     		movs	r0, r2
 883              	.LVL44:
 884              		.loc 1 467 13 view .LVU234
 885 00bc 1840     		ands	r0, r3
 886              		.loc 1 467 12 view .LVU235
 887 00be 1A42     		tst	r2, r3
 888 00c0 00D1     		bne	.LCB752
 889 00c2 EAE0     		b	.L54	@long jump
 890              	.LCB752:
 468:Drivers/STM32L0xx_HAL_Driver/Src/stm32l0xx_hal_rcc_ex.c ****         {
 469:Drivers/STM32L0xx_HAL_Driver/Src/stm32l0xx_hal_rcc_ex.c ****           /* Get PLL clock source and multiplication factor ----------------------*/
 470:Drivers/STM32L0xx_HAL_Driver/Src/stm32l0xx_hal_rcc_ex.c ****           pllmul = RCC->CFGR & RCC_CFGR_PLLMUL;
 891              		.loc 1 470 11 is_stmt 1 view .LVU236
 892              		.loc 1 470 23 is_stmt 0 view .LVU237
 893 00c4 7D4B     		ldr	r3, .L122+4
 894 00c6 D868     		ldr	r0, [r3, #12]
 895              	.LVL45:
 471:Drivers/STM32L0xx_HAL_Driver/Src/stm32l0xx_hal_rcc_ex.c ****           plldiv = RCC->CFGR & RCC_CFGR_PLLDIV;
 896              		.loc 1 471 11 is_stmt 1 view .LVU238
 897              		.loc 1 471 23 is_stmt 0 view .LVU239
 898 00c8 DA68     		ldr	r2, [r3, #12]
 899              	.LVL46:
 472:Drivers/STM32L0xx_HAL_Driver/Src/stm32l0xx_hal_rcc_ex.c ****           pllmul = PLLMulTable[(pllmul >> RCC_CFGR_PLLMUL_Pos)];
 900              		.loc 1 472 11 is_stmt 1 view .LVU240
 901              		.loc 1 472 40 is_stmt 0 view .LVU241
 902 00ca 800C     		lsrs	r0, r0, #18
 903              	.LVL47:
 904              		.loc 1 472 40 view .LVU242
 905 00cc 0F21     		movs	r1, #15
 906 00ce 0140     		ands	r1, r0
 907              		.loc 1 472 31 view .LVU243
 908 00d0 7E48     		ldr	r0, .L122+20
 909 00d2 405C     		ldrb	r0, [r0, r1]
 910              	.LVL48:
ARM GAS  /tmp/cc6QWq81.s 			page 26


 473:Drivers/STM32L0xx_HAL_Driver/Src/stm32l0xx_hal_rcc_ex.c ****           plldiv = (plldiv >> RCC_CFGR_PLLDIV_Pos) + 1U;
 911              		.loc 1 473 11 is_stmt 1 view .LVU244
 912              		.loc 1 473 28 is_stmt 0 view .LVU245
 913 00d4 920D     		lsrs	r2, r2, #22
 914              	.LVL49:
 915              		.loc 1 473 28 view .LVU246
 916 00d6 0321     		movs	r1, #3
 917 00d8 1140     		ands	r1, r2
 918              		.loc 1 473 18 view .LVU247
 919 00da 0131     		adds	r1, r1, #1
 920              	.LVL50:
 474:Drivers/STM32L0xx_HAL_Driver/Src/stm32l0xx_hal_rcc_ex.c **** 
 475:Drivers/STM32L0xx_HAL_Driver/Src/stm32l0xx_hal_rcc_ex.c ****           /* Compute PLL clock input */
 476:Drivers/STM32L0xx_HAL_Driver/Src/stm32l0xx_hal_rcc_ex.c ****           if(__HAL_RCC_GET_PLL_OSCSOURCE() == RCC_PLLSOURCE_HSI)
 921              		.loc 1 476 11 is_stmt 1 view .LVU248
 922              		.loc 1 476 14 is_stmt 0 view .LVU249
 923 00dc DB68     		ldr	r3, [r3, #12]
 924              		.loc 1 476 13 view .LVU250
 925 00de DB03     		lsls	r3, r3, #15
 926 00e0 05D4     		bmi	.L89
 477:Drivers/STM32L0xx_HAL_Driver/Src/stm32l0xx_hal_rcc_ex.c ****           {
 478:Drivers/STM32L0xx_HAL_Driver/Src/stm32l0xx_hal_rcc_ex.c ****             if (READ_BIT(RCC->CR, RCC_CR_HSIDIVF) != 0U)
 927              		.loc 1 478 13 is_stmt 1 view .LVU251
 928              		.loc 1 478 17 is_stmt 0 view .LVU252
 929 00e2 764B     		ldr	r3, .L122+4
 930 00e4 1B68     		ldr	r3, [r3]
 931              		.loc 1 478 16 view .LVU253
 932 00e6 DB06     		lsls	r3, r3, #27
 933 00e8 06D5     		bpl	.L90
 479:Drivers/STM32L0xx_HAL_Driver/Src/stm32l0xx_hal_rcc_ex.c ****             {
 480:Drivers/STM32L0xx_HAL_Driver/Src/stm32l0xx_hal_rcc_ex.c ****               pllvco =  (HSI_VALUE >> 2U);
 934              		.loc 1 480 22 view .LVU254
 935 00ea 764B     		ldr	r3, .L122+12
 936 00ec 00E0     		b	.L68
 937              	.L89:
 481:Drivers/STM32L0xx_HAL_Driver/Src/stm32l0xx_hal_rcc_ex.c ****             }
 482:Drivers/STM32L0xx_HAL_Driver/Src/stm32l0xx_hal_rcc_ex.c ****             else
 483:Drivers/STM32L0xx_HAL_Driver/Src/stm32l0xx_hal_rcc_ex.c ****             {
 484:Drivers/STM32L0xx_HAL_Driver/Src/stm32l0xx_hal_rcc_ex.c ****               pllvco =  HSI_VALUE;
 485:Drivers/STM32L0xx_HAL_Driver/Src/stm32l0xx_hal_rcc_ex.c ****             }
 486:Drivers/STM32L0xx_HAL_Driver/Src/stm32l0xx_hal_rcc_ex.c ****           }
 487:Drivers/STM32L0xx_HAL_Driver/Src/stm32l0xx_hal_rcc_ex.c ****           else /* HSE source */
 488:Drivers/STM32L0xx_HAL_Driver/Src/stm32l0xx_hal_rcc_ex.c ****           {
 489:Drivers/STM32L0xx_HAL_Driver/Src/stm32l0xx_hal_rcc_ex.c ****             pllvco = HSE_VALUE;
 938              		.loc 1 489 20 view .LVU255
 939 00ee 784B     		ldr	r3, .L122+24
 940              	.L68:
 941              	.LVL51:
 490:Drivers/STM32L0xx_HAL_Driver/Src/stm32l0xx_hal_rcc_ex.c ****           }
 491:Drivers/STM32L0xx_HAL_Driver/Src/stm32l0xx_hal_rcc_ex.c ****           /* pllvco * pllmul / plldiv */
 492:Drivers/STM32L0xx_HAL_Driver/Src/stm32l0xx_hal_rcc_ex.c ****           pllvco = (pllvco * pllmul);
 942              		.loc 1 492 11 is_stmt 1 view .LVU256
 943              		.loc 1 492 18 is_stmt 0 view .LVU257
 944 00f0 5843     		muls	r0, r3
 945              	.LVL52:
 493:Drivers/STM32L0xx_HAL_Driver/Src/stm32l0xx_hal_rcc_ex.c ****           frequency = (pllvco/ plldiv);
 946              		.loc 1 493 11 is_stmt 1 view .LVU258
ARM GAS  /tmp/cc6QWq81.s 			page 27


 947              		.loc 1 493 21 is_stmt 0 view .LVU259
 948 00f2 FFF7FEFF 		bl	__aeabi_uidiv
 949              	.LVL53:
 950              		.loc 1 493 21 view .LVU260
 951 00f6 D0E0     		b	.L54
 952              	.LVL54:
 953              	.L90:
 484:Drivers/STM32L0xx_HAL_Driver/Src/stm32l0xx_hal_rcc_ex.c ****             }
 954              		.loc 1 484 22 view .LVU261
 955 00f8 764B     		ldr	r3, .L122+28
 956 00fa F9E7     		b	.L68
 957              	.LVL55:
 958              	.L67:
 494:Drivers/STM32L0xx_HAL_Driver/Src/stm32l0xx_hal_rcc_ex.c ****         }
 495:Drivers/STM32L0xx_HAL_Driver/Src/stm32l0xx_hal_rcc_ex.c ****       }
 496:Drivers/STM32L0xx_HAL_Driver/Src/stm32l0xx_hal_rcc_ex.c ****       else if (srcclk == RCC_USBCLKSOURCE_HSI48)
 959              		.loc 1 496 12 is_stmt 1 view .LVU262
 497:Drivers/STM32L0xx_HAL_Driver/Src/stm32l0xx_hal_rcc_ex.c ****       {
 498:Drivers/STM32L0xx_HAL_Driver/Src/stm32l0xx_hal_rcc_ex.c ****         if (HAL_IS_BIT_SET(RCC->CRRCR, RCC_CRRCR_HSI48RDY))
 960              		.loc 1 498 9 view .LVU263
 961              		.loc 1 498 13 is_stmt 0 view .LVU264
 962 00fc 6F4B     		ldr	r3, .L122+4
 963 00fe 9B68     		ldr	r3, [r3, #8]
 964 0100 0222     		movs	r2, #2
 965 0102 1000     		movs	r0, r2
 966              	.LVL56:
 967              		.loc 1 498 13 view .LVU265
 968 0104 1840     		ands	r0, r3
 969              		.loc 1 498 12 view .LVU266
 970 0106 1A42     		tst	r2, r3
 971 0108 00D1     		bne	.LCB831
 972 010a C6E0     		b	.L54	@long jump
 973              	.LCB831:
 499:Drivers/STM32L0xx_HAL_Driver/Src/stm32l0xx_hal_rcc_ex.c ****         {
 500:Drivers/STM32L0xx_HAL_Driver/Src/stm32l0xx_hal_rcc_ex.c ****           frequency = HSI48_VALUE;
 974              		.loc 1 500 21 view .LVU267
 975 010c 7248     		ldr	r0, .L122+32
 976 010e C4E0     		b	.L54
 977              	.L63:
 501:Drivers/STM32L0xx_HAL_Driver/Src/stm32l0xx_hal_rcc_ex.c ****         }
 502:Drivers/STM32L0xx_HAL_Driver/Src/stm32l0xx_hal_rcc_ex.c ****       }
 503:Drivers/STM32L0xx_HAL_Driver/Src/stm32l0xx_hal_rcc_ex.c ****       else /* RCC_USBCLKSOURCE_NONE */
 504:Drivers/STM32L0xx_HAL_Driver/Src/stm32l0xx_hal_rcc_ex.c ****       {
 505:Drivers/STM32L0xx_HAL_Driver/Src/stm32l0xx_hal_rcc_ex.c ****           /* nothing to do: frequency already initialized to 0U */
 506:Drivers/STM32L0xx_HAL_Driver/Src/stm32l0xx_hal_rcc_ex.c ****       }
 507:Drivers/STM32L0xx_HAL_Driver/Src/stm32l0xx_hal_rcc_ex.c ****       break;
 508:Drivers/STM32L0xx_HAL_Driver/Src/stm32l0xx_hal_rcc_ex.c ****     }
 509:Drivers/STM32L0xx_HAL_Driver/Src/stm32l0xx_hal_rcc_ex.c **** #endif /* USB */
 510:Drivers/STM32L0xx_HAL_Driver/Src/stm32l0xx_hal_rcc_ex.c **** #if defined(RCC_CCIPR_USART1SEL)
 511:Drivers/STM32L0xx_HAL_Driver/Src/stm32l0xx_hal_rcc_ex.c ****   case RCC_PERIPHCLK_USART1:
 512:Drivers/STM32L0xx_HAL_Driver/Src/stm32l0xx_hal_rcc_ex.c ****     {
 513:Drivers/STM32L0xx_HAL_Driver/Src/stm32l0xx_hal_rcc_ex.c ****       /* Get the current USART1 source */
 514:Drivers/STM32L0xx_HAL_Driver/Src/stm32l0xx_hal_rcc_ex.c ****       srcclk = __HAL_RCC_GET_USART1_SOURCE();
 978              		.loc 1 514 7 is_stmt 1 view .LVU268
 979              		.loc 1 514 16 is_stmt 0 view .LVU269
 980 0110 6A4B     		ldr	r3, .L122+4
 981 0112 DB6C     		ldr	r3, [r3, #76]
ARM GAS  /tmp/cc6QWq81.s 			page 28


 982              		.loc 1 514 14 view .LVU270
 983 0114 0322     		movs	r2, #3
 984 0116 1100     		movs	r1, r2
 985 0118 1940     		ands	r1, r3
 986              	.LVL57:
 515:Drivers/STM32L0xx_HAL_Driver/Src/stm32l0xx_hal_rcc_ex.c **** 
 516:Drivers/STM32L0xx_HAL_Driver/Src/stm32l0xx_hal_rcc_ex.c ****       /* Check if USART1 clock selection is PCLK2 */
 517:Drivers/STM32L0xx_HAL_Driver/Src/stm32l0xx_hal_rcc_ex.c ****       if (srcclk == RCC_USART1CLKSOURCE_PCLK2)
 987              		.loc 1 517 7 is_stmt 1 view .LVU271
 988              		.loc 1 517 10 is_stmt 0 view .LVU272
 989 011a 1A42     		tst	r2, r3
 990 011c 07D0     		beq	.L107
 518:Drivers/STM32L0xx_HAL_Driver/Src/stm32l0xx_hal_rcc_ex.c ****       {
 519:Drivers/STM32L0xx_HAL_Driver/Src/stm32l0xx_hal_rcc_ex.c ****         frequency = HAL_RCC_GetPCLK2Freq();
 520:Drivers/STM32L0xx_HAL_Driver/Src/stm32l0xx_hal_rcc_ex.c ****       }
 521:Drivers/STM32L0xx_HAL_Driver/Src/stm32l0xx_hal_rcc_ex.c ****       /* Check if HSI is ready and if USART1 clock selection is HSI */
 522:Drivers/STM32L0xx_HAL_Driver/Src/stm32l0xx_hal_rcc_ex.c ****       else if (srcclk == RCC_USART1CLKSOURCE_HSI)
 991              		.loc 1 522 12 is_stmt 1 view .LVU273
 992              		.loc 1 522 15 is_stmt 0 view .LVU274
 993 011e 0229     		cmp	r1, #2
 994 0120 08D0     		beq	.L108
 523:Drivers/STM32L0xx_HAL_Driver/Src/stm32l0xx_hal_rcc_ex.c ****       {
 524:Drivers/STM32L0xx_HAL_Driver/Src/stm32l0xx_hal_rcc_ex.c ****         if (HAL_IS_BIT_SET(RCC->CR, RCC_CR_HSIRDY))
 525:Drivers/STM32L0xx_HAL_Driver/Src/stm32l0xx_hal_rcc_ex.c ****         {
 526:Drivers/STM32L0xx_HAL_Driver/Src/stm32l0xx_hal_rcc_ex.c ****           if (READ_BIT(RCC->CR, RCC_CR_HSIDIVF) != 0U)
 527:Drivers/STM32L0xx_HAL_Driver/Src/stm32l0xx_hal_rcc_ex.c ****           {
 528:Drivers/STM32L0xx_HAL_Driver/Src/stm32l0xx_hal_rcc_ex.c ****             frequency =  (HSI_VALUE >> 2U);
 529:Drivers/STM32L0xx_HAL_Driver/Src/stm32l0xx_hal_rcc_ex.c ****           }
 530:Drivers/STM32L0xx_HAL_Driver/Src/stm32l0xx_hal_rcc_ex.c ****           else
 531:Drivers/STM32L0xx_HAL_Driver/Src/stm32l0xx_hal_rcc_ex.c ****           {
 532:Drivers/STM32L0xx_HAL_Driver/Src/stm32l0xx_hal_rcc_ex.c ****             frequency =  HSI_VALUE;
 533:Drivers/STM32L0xx_HAL_Driver/Src/stm32l0xx_hal_rcc_ex.c ****           }
 534:Drivers/STM32L0xx_HAL_Driver/Src/stm32l0xx_hal_rcc_ex.c ****         }
 535:Drivers/STM32L0xx_HAL_Driver/Src/stm32l0xx_hal_rcc_ex.c ****       }
 536:Drivers/STM32L0xx_HAL_Driver/Src/stm32l0xx_hal_rcc_ex.c ****       /* Check if USART1 clock selection is SYSCLK */
 537:Drivers/STM32L0xx_HAL_Driver/Src/stm32l0xx_hal_rcc_ex.c ****       else if (srcclk == RCC_USART1CLKSOURCE_SYSCLK)
 995              		.loc 1 537 12 is_stmt 1 view .LVU275
 996              		.loc 1 537 15 is_stmt 0 view .LVU276
 997 0122 0129     		cmp	r1, #1
 998 0124 15D0     		beq	.L109
 538:Drivers/STM32L0xx_HAL_Driver/Src/stm32l0xx_hal_rcc_ex.c ****       {
 539:Drivers/STM32L0xx_HAL_Driver/Src/stm32l0xx_hal_rcc_ex.c ****         frequency = HAL_RCC_GetSysClockFreq();
 540:Drivers/STM32L0xx_HAL_Driver/Src/stm32l0xx_hal_rcc_ex.c ****       }
 541:Drivers/STM32L0xx_HAL_Driver/Src/stm32l0xx_hal_rcc_ex.c ****       /* Check if LSE is ready  and if USART1 clock selection is LSE */
 542:Drivers/STM32L0xx_HAL_Driver/Src/stm32l0xx_hal_rcc_ex.c ****       else if (srcclk == RCC_USART1CLKSOURCE_LSE)
 999              		.loc 1 542 12 is_stmt 1 view .LVU277
 1000              		.loc 1 542 15 is_stmt 0 view .LVU278
 1001 0126 0329     		cmp	r1, #3
 1002 0128 16D0     		beq	.L110
 384:Drivers/STM32L0xx_HAL_Driver/Src/stm32l0xx_hal_rcc_ex.c ****   uint32_t temp_reg, clkprediv, srcclk;    /* no init needed */
 1003              		.loc 1 384 12 view .LVU279
 1004 012a 0020     		movs	r0, #0
 1005 012c B5E0     		b	.L54
 1006              	.L107:
 519:Drivers/STM32L0xx_HAL_Driver/Src/stm32l0xx_hal_rcc_ex.c ****       }
 1007              		.loc 1 519 9 is_stmt 1 view .LVU280
 519:Drivers/STM32L0xx_HAL_Driver/Src/stm32l0xx_hal_rcc_ex.c ****       }
ARM GAS  /tmp/cc6QWq81.s 			page 29


 1008              		.loc 1 519 21 is_stmt 0 view .LVU281
 1009 012e FFF7FEFF 		bl	HAL_RCC_GetPCLK2Freq
 1010              	.LVL58:
 519:Drivers/STM32L0xx_HAL_Driver/Src/stm32l0xx_hal_rcc_ex.c ****       }
 1011              		.loc 1 519 21 view .LVU282
 1012 0132 B2E0     		b	.L54
 1013              	.LVL59:
 1014              	.L108:
 524:Drivers/STM32L0xx_HAL_Driver/Src/stm32l0xx_hal_rcc_ex.c ****         {
 1015              		.loc 1 524 9 is_stmt 1 view .LVU283
 524:Drivers/STM32L0xx_HAL_Driver/Src/stm32l0xx_hal_rcc_ex.c ****         {
 1016              		.loc 1 524 13 is_stmt 0 view .LVU284
 1017 0134 614B     		ldr	r3, .L122+4
 1018 0136 1B68     		ldr	r3, [r3]
 1019 0138 0422     		movs	r2, #4
 1020 013a 1000     		movs	r0, r2
 1021 013c 1840     		ands	r0, r3
 524:Drivers/STM32L0xx_HAL_Driver/Src/stm32l0xx_hal_rcc_ex.c ****         {
 1022              		.loc 1 524 12 view .LVU285
 1023 013e 1A42     		tst	r2, r3
 1024 0140 00D1     		bne	.LCB879
 1025 0142 AAE0     		b	.L54	@long jump
 1026              	.LCB879:
 526:Drivers/STM32L0xx_HAL_Driver/Src/stm32l0xx_hal_rcc_ex.c ****           {
 1027              		.loc 1 526 11 is_stmt 1 view .LVU286
 526:Drivers/STM32L0xx_HAL_Driver/Src/stm32l0xx_hal_rcc_ex.c ****           {
 1028              		.loc 1 526 15 is_stmt 0 view .LVU287
 1029 0144 5D4B     		ldr	r3, .L122+4
 1030 0146 1B68     		ldr	r3, [r3]
 526:Drivers/STM32L0xx_HAL_Driver/Src/stm32l0xx_hal_rcc_ex.c ****           {
 1031              		.loc 1 526 14 view .LVU288
 1032 0148 DB06     		lsls	r3, r3, #27
 1033 014a 00D4     		bmi	.LCB886
 1034 014c ACE0     		b	.L92	@long jump
 1035              	.LCB886:
 528:Drivers/STM32L0xx_HAL_Driver/Src/stm32l0xx_hal_rcc_ex.c ****           }
 1036              		.loc 1 528 23 view .LVU289
 1037 014e 5D48     		ldr	r0, .L122+12
 1038 0150 A3E0     		b	.L54
 1039              	.L109:
 539:Drivers/STM32L0xx_HAL_Driver/Src/stm32l0xx_hal_rcc_ex.c ****       }
 1040              		.loc 1 539 9 is_stmt 1 view .LVU290
 539:Drivers/STM32L0xx_HAL_Driver/Src/stm32l0xx_hal_rcc_ex.c ****       }
 1041              		.loc 1 539 21 is_stmt 0 view .LVU291
 1042 0152 FFF7FEFF 		bl	HAL_RCC_GetSysClockFreq
 1043              	.LVL60:
 539:Drivers/STM32L0xx_HAL_Driver/Src/stm32l0xx_hal_rcc_ex.c ****       }
 1044              		.loc 1 539 21 view .LVU292
 1045 0156 A0E0     		b	.L54
 1046              	.LVL61:
 1047              	.L110:
 543:Drivers/STM32L0xx_HAL_Driver/Src/stm32l0xx_hal_rcc_ex.c ****       {
 544:Drivers/STM32L0xx_HAL_Driver/Src/stm32l0xx_hal_rcc_ex.c ****         if (HAL_IS_BIT_SET(RCC->CSR, RCC_CSR_LSERDY))
 1048              		.loc 1 544 9 is_stmt 1 view .LVU293
 1049              		.loc 1 544 13 is_stmt 0 view .LVU294
 1050 0158 584B     		ldr	r3, .L122+4
 1051 015a 1A6D     		ldr	r2, [r3, #80]
ARM GAS  /tmp/cc6QWq81.s 			page 30


 1052 015c 8023     		movs	r3, #128
 1053 015e 9B00     		lsls	r3, r3, #2
 1054 0160 1000     		movs	r0, r2
 1055 0162 1840     		ands	r0, r3
 1056              		.loc 1 544 12 view .LVU295
 1057 0164 1A42     		tst	r2, r3
 1058 0166 00D1     		bne	.LCB910
 1059 0168 97E0     		b	.L54	@long jump
 1060              	.LCB910:
 545:Drivers/STM32L0xx_HAL_Driver/Src/stm32l0xx_hal_rcc_ex.c ****         {
 546:Drivers/STM32L0xx_HAL_Driver/Src/stm32l0xx_hal_rcc_ex.c ****           frequency = LSE_VALUE;
 1061              		.loc 1 546 21 view .LVU296
 1062 016a 8020     		movs	r0, #128
 1063 016c 0002     		lsls	r0, r0, #8
 1064 016e 94E0     		b	.L54
 1065              	.LVL62:
 1066              	.L62:
 547:Drivers/STM32L0xx_HAL_Driver/Src/stm32l0xx_hal_rcc_ex.c ****         }
 548:Drivers/STM32L0xx_HAL_Driver/Src/stm32l0xx_hal_rcc_ex.c ****       }
 549:Drivers/STM32L0xx_HAL_Driver/Src/stm32l0xx_hal_rcc_ex.c ****       /* Clock not enabled for USART1*/
 550:Drivers/STM32L0xx_HAL_Driver/Src/stm32l0xx_hal_rcc_ex.c ****       else
 551:Drivers/STM32L0xx_HAL_Driver/Src/stm32l0xx_hal_rcc_ex.c ****       {
 552:Drivers/STM32L0xx_HAL_Driver/Src/stm32l0xx_hal_rcc_ex.c ****         /* nothing to do: frequency already initialized to 0U */
 553:Drivers/STM32L0xx_HAL_Driver/Src/stm32l0xx_hal_rcc_ex.c ****       }
 554:Drivers/STM32L0xx_HAL_Driver/Src/stm32l0xx_hal_rcc_ex.c ****       break;
 555:Drivers/STM32L0xx_HAL_Driver/Src/stm32l0xx_hal_rcc_ex.c ****     }
 556:Drivers/STM32L0xx_HAL_Driver/Src/stm32l0xx_hal_rcc_ex.c **** #endif /* RCC_CCIPR_USART1SEL */
 557:Drivers/STM32L0xx_HAL_Driver/Src/stm32l0xx_hal_rcc_ex.c ****   case RCC_PERIPHCLK_USART2:
 558:Drivers/STM32L0xx_HAL_Driver/Src/stm32l0xx_hal_rcc_ex.c ****     {
 559:Drivers/STM32L0xx_HAL_Driver/Src/stm32l0xx_hal_rcc_ex.c ****       /* Get the current USART2 source */
 560:Drivers/STM32L0xx_HAL_Driver/Src/stm32l0xx_hal_rcc_ex.c ****       srcclk = __HAL_RCC_GET_USART2_SOURCE();
 1067              		.loc 1 560 7 is_stmt 1 view .LVU297
 1068              		.loc 1 560 16 is_stmt 0 view .LVU298
 1069 0170 524B     		ldr	r3, .L122+4
 1070 0172 DB6C     		ldr	r3, [r3, #76]
 1071              		.loc 1 560 14 view .LVU299
 1072 0174 0C22     		movs	r2, #12
 1073 0176 1100     		movs	r1, r2
 1074 0178 1940     		ands	r1, r3
 1075              	.LVL63:
 561:Drivers/STM32L0xx_HAL_Driver/Src/stm32l0xx_hal_rcc_ex.c **** 
 562:Drivers/STM32L0xx_HAL_Driver/Src/stm32l0xx_hal_rcc_ex.c ****       /* Check if USART2 clock selection is PCLK1 */
 563:Drivers/STM32L0xx_HAL_Driver/Src/stm32l0xx_hal_rcc_ex.c ****       if (srcclk == RCC_USART2CLKSOURCE_PCLK1)
 1076              		.loc 1 563 7 is_stmt 1 view .LVU300
 1077              		.loc 1 563 10 is_stmt 0 view .LVU301
 1078 017a 1A42     		tst	r2, r3
 1079 017c 07D0     		beq	.L111
 564:Drivers/STM32L0xx_HAL_Driver/Src/stm32l0xx_hal_rcc_ex.c ****       {
 565:Drivers/STM32L0xx_HAL_Driver/Src/stm32l0xx_hal_rcc_ex.c ****         frequency = HAL_RCC_GetPCLK1Freq();
 566:Drivers/STM32L0xx_HAL_Driver/Src/stm32l0xx_hal_rcc_ex.c ****       }
 567:Drivers/STM32L0xx_HAL_Driver/Src/stm32l0xx_hal_rcc_ex.c ****       /* Check if HSI is ready and if USART2 clock selection is HSI */
 568:Drivers/STM32L0xx_HAL_Driver/Src/stm32l0xx_hal_rcc_ex.c ****       else if (srcclk == RCC_USART2CLKSOURCE_HSI)
 1080              		.loc 1 568 12 is_stmt 1 view .LVU302
 1081              		.loc 1 568 15 is_stmt 0 view .LVU303
 1082 017e 0829     		cmp	r1, #8
 1083 0180 08D0     		beq	.L112
 569:Drivers/STM32L0xx_HAL_Driver/Src/stm32l0xx_hal_rcc_ex.c ****       {
ARM GAS  /tmp/cc6QWq81.s 			page 31


 570:Drivers/STM32L0xx_HAL_Driver/Src/stm32l0xx_hal_rcc_ex.c ****         if (HAL_IS_BIT_SET(RCC->CR, RCC_CR_HSIRDY))
 571:Drivers/STM32L0xx_HAL_Driver/Src/stm32l0xx_hal_rcc_ex.c ****         {
 572:Drivers/STM32L0xx_HAL_Driver/Src/stm32l0xx_hal_rcc_ex.c ****           if (READ_BIT(RCC->CR, RCC_CR_HSIDIVF) != 0U)
 573:Drivers/STM32L0xx_HAL_Driver/Src/stm32l0xx_hal_rcc_ex.c ****           {
 574:Drivers/STM32L0xx_HAL_Driver/Src/stm32l0xx_hal_rcc_ex.c ****             frequency =  (HSI_VALUE >> 2U);
 575:Drivers/STM32L0xx_HAL_Driver/Src/stm32l0xx_hal_rcc_ex.c ****           }
 576:Drivers/STM32L0xx_HAL_Driver/Src/stm32l0xx_hal_rcc_ex.c ****           else
 577:Drivers/STM32L0xx_HAL_Driver/Src/stm32l0xx_hal_rcc_ex.c ****           {
 578:Drivers/STM32L0xx_HAL_Driver/Src/stm32l0xx_hal_rcc_ex.c ****             frequency =  HSI_VALUE;
 579:Drivers/STM32L0xx_HAL_Driver/Src/stm32l0xx_hal_rcc_ex.c ****           }
 580:Drivers/STM32L0xx_HAL_Driver/Src/stm32l0xx_hal_rcc_ex.c ****         }
 581:Drivers/STM32L0xx_HAL_Driver/Src/stm32l0xx_hal_rcc_ex.c ****       }
 582:Drivers/STM32L0xx_HAL_Driver/Src/stm32l0xx_hal_rcc_ex.c ****       /* Check if USART2 clock selection is SYSCLK */
 583:Drivers/STM32L0xx_HAL_Driver/Src/stm32l0xx_hal_rcc_ex.c ****       else if (srcclk == RCC_USART2CLKSOURCE_SYSCLK)
 1084              		.loc 1 583 12 is_stmt 1 view .LVU304
 1085              		.loc 1 583 15 is_stmt 0 view .LVU305
 1086 0182 0429     		cmp	r1, #4
 1087 0184 14D0     		beq	.L113
 584:Drivers/STM32L0xx_HAL_Driver/Src/stm32l0xx_hal_rcc_ex.c ****       {
 585:Drivers/STM32L0xx_HAL_Driver/Src/stm32l0xx_hal_rcc_ex.c ****         frequency = HAL_RCC_GetSysClockFreq();
 586:Drivers/STM32L0xx_HAL_Driver/Src/stm32l0xx_hal_rcc_ex.c ****       }
 587:Drivers/STM32L0xx_HAL_Driver/Src/stm32l0xx_hal_rcc_ex.c ****       /* Check if LSE is ready  and if USART2 clock selection is LSE */
 588:Drivers/STM32L0xx_HAL_Driver/Src/stm32l0xx_hal_rcc_ex.c ****       else if (srcclk == RCC_USART2CLKSOURCE_LSE)
 1088              		.loc 1 588 12 is_stmt 1 view .LVU306
 1089              		.loc 1 588 15 is_stmt 0 view .LVU307
 1090 0186 0C29     		cmp	r1, #12
 1091 0188 15D0     		beq	.L114
 384:Drivers/STM32L0xx_HAL_Driver/Src/stm32l0xx_hal_rcc_ex.c ****   uint32_t temp_reg, clkprediv, srcclk;    /* no init needed */
 1092              		.loc 1 384 12 view .LVU308
 1093 018a 0020     		movs	r0, #0
 1094 018c 85E0     		b	.L54
 1095              	.L111:
 565:Drivers/STM32L0xx_HAL_Driver/Src/stm32l0xx_hal_rcc_ex.c ****       }
 1096              		.loc 1 565 9 is_stmt 1 view .LVU309
 565:Drivers/STM32L0xx_HAL_Driver/Src/stm32l0xx_hal_rcc_ex.c ****       }
 1097              		.loc 1 565 21 is_stmt 0 view .LVU310
 1098 018e FFF7FEFF 		bl	HAL_RCC_GetPCLK1Freq
 1099              	.LVL64:
 565:Drivers/STM32L0xx_HAL_Driver/Src/stm32l0xx_hal_rcc_ex.c ****       }
 1100              		.loc 1 565 21 view .LVU311
 1101 0192 82E0     		b	.L54
 1102              	.LVL65:
 1103              	.L112:
 570:Drivers/STM32L0xx_HAL_Driver/Src/stm32l0xx_hal_rcc_ex.c ****         {
 1104              		.loc 1 570 9 is_stmt 1 view .LVU312
 570:Drivers/STM32L0xx_HAL_Driver/Src/stm32l0xx_hal_rcc_ex.c ****         {
 1105              		.loc 1 570 13 is_stmt 0 view .LVU313
 1106 0194 494B     		ldr	r3, .L122+4
 1107 0196 1B68     		ldr	r3, [r3]
 1108 0198 0422     		movs	r2, #4
 1109 019a 1000     		movs	r0, r2
 1110 019c 1840     		ands	r0, r3
 570:Drivers/STM32L0xx_HAL_Driver/Src/stm32l0xx_hal_rcc_ex.c ****         {
 1111              		.loc 1 570 12 view .LVU314
 1112 019e 1A42     		tst	r2, r3
 1113 01a0 7BD0     		beq	.L54
 572:Drivers/STM32L0xx_HAL_Driver/Src/stm32l0xx_hal_rcc_ex.c ****           {
ARM GAS  /tmp/cc6QWq81.s 			page 32


 1114              		.loc 1 572 11 is_stmt 1 view .LVU315
 572:Drivers/STM32L0xx_HAL_Driver/Src/stm32l0xx_hal_rcc_ex.c ****           {
 1115              		.loc 1 572 15 is_stmt 0 view .LVU316
 1116 01a2 464B     		ldr	r3, .L122+4
 1117 01a4 1B68     		ldr	r3, [r3]
 572:Drivers/STM32L0xx_HAL_Driver/Src/stm32l0xx_hal_rcc_ex.c ****           {
 1118              		.loc 1 572 14 view .LVU317
 1119 01a6 DB06     		lsls	r3, r3, #27
 1120 01a8 00D4     		bmi	.LCB966
 1121 01aa 7FE0     		b	.L95	@long jump
 1122              	.LCB966:
 574:Drivers/STM32L0xx_HAL_Driver/Src/stm32l0xx_hal_rcc_ex.c ****           }
 1123              		.loc 1 574 23 view .LVU318
 1124 01ac 4548     		ldr	r0, .L122+12
 1125 01ae 74E0     		b	.L54
 1126              	.L113:
 585:Drivers/STM32L0xx_HAL_Driver/Src/stm32l0xx_hal_rcc_ex.c ****       }
 1127              		.loc 1 585 9 is_stmt 1 view .LVU319
 585:Drivers/STM32L0xx_HAL_Driver/Src/stm32l0xx_hal_rcc_ex.c ****       }
 1128              		.loc 1 585 21 is_stmt 0 view .LVU320
 1129 01b0 FFF7FEFF 		bl	HAL_RCC_GetSysClockFreq
 1130              	.LVL66:
 585:Drivers/STM32L0xx_HAL_Driver/Src/stm32l0xx_hal_rcc_ex.c ****       }
 1131              		.loc 1 585 21 view .LVU321
 1132 01b4 71E0     		b	.L54
 1133              	.LVL67:
 1134              	.L114:
 589:Drivers/STM32L0xx_HAL_Driver/Src/stm32l0xx_hal_rcc_ex.c ****       {
 590:Drivers/STM32L0xx_HAL_Driver/Src/stm32l0xx_hal_rcc_ex.c ****         if (HAL_IS_BIT_SET(RCC->CSR, RCC_CSR_LSERDY))
 1135              		.loc 1 590 9 is_stmt 1 view .LVU322
 1136              		.loc 1 590 13 is_stmt 0 view .LVU323
 1137 01b6 414B     		ldr	r3, .L122+4
 1138 01b8 1A6D     		ldr	r2, [r3, #80]
 1139 01ba 8023     		movs	r3, #128
 1140 01bc 9B00     		lsls	r3, r3, #2
 1141 01be 1000     		movs	r0, r2
 1142 01c0 1840     		ands	r0, r3
 1143              		.loc 1 590 12 view .LVU324
 1144 01c2 1A42     		tst	r2, r3
 1145 01c4 69D0     		beq	.L54
 591:Drivers/STM32L0xx_HAL_Driver/Src/stm32l0xx_hal_rcc_ex.c ****         {
 592:Drivers/STM32L0xx_HAL_Driver/Src/stm32l0xx_hal_rcc_ex.c ****           frequency = LSE_VALUE;
 1146              		.loc 1 592 21 view .LVU325
 1147 01c6 8020     		movs	r0, #128
 1148 01c8 0002     		lsls	r0, r0, #8
 1149 01ca 66E0     		b	.L54
 1150              	.LVL68:
 1151              	.L61:
 593:Drivers/STM32L0xx_HAL_Driver/Src/stm32l0xx_hal_rcc_ex.c ****         }
 594:Drivers/STM32L0xx_HAL_Driver/Src/stm32l0xx_hal_rcc_ex.c ****       }
 595:Drivers/STM32L0xx_HAL_Driver/Src/stm32l0xx_hal_rcc_ex.c ****       /* Clock not enabled for USART2*/
 596:Drivers/STM32L0xx_HAL_Driver/Src/stm32l0xx_hal_rcc_ex.c ****       else
 597:Drivers/STM32L0xx_HAL_Driver/Src/stm32l0xx_hal_rcc_ex.c ****       {
 598:Drivers/STM32L0xx_HAL_Driver/Src/stm32l0xx_hal_rcc_ex.c ****         /* nothing to do: frequency already initialized to 0U */
 599:Drivers/STM32L0xx_HAL_Driver/Src/stm32l0xx_hal_rcc_ex.c ****       }
 600:Drivers/STM32L0xx_HAL_Driver/Src/stm32l0xx_hal_rcc_ex.c ****       break;
 601:Drivers/STM32L0xx_HAL_Driver/Src/stm32l0xx_hal_rcc_ex.c ****     }
ARM GAS  /tmp/cc6QWq81.s 			page 33


 602:Drivers/STM32L0xx_HAL_Driver/Src/stm32l0xx_hal_rcc_ex.c ****   case RCC_PERIPHCLK_LPUART1:
 603:Drivers/STM32L0xx_HAL_Driver/Src/stm32l0xx_hal_rcc_ex.c ****     {
 604:Drivers/STM32L0xx_HAL_Driver/Src/stm32l0xx_hal_rcc_ex.c ****       /* Get the current LPUART1 source */
 605:Drivers/STM32L0xx_HAL_Driver/Src/stm32l0xx_hal_rcc_ex.c ****       srcclk = __HAL_RCC_GET_LPUART1_SOURCE();
 1152              		.loc 1 605 7 is_stmt 1 view .LVU326
 1153              		.loc 1 605 16 is_stmt 0 view .LVU327
 1154 01cc 3B4B     		ldr	r3, .L122+4
 1155 01ce DA6C     		ldr	r2, [r3, #76]
 1156              		.loc 1 605 14 view .LVU328
 1157 01d0 C023     		movs	r3, #192
 1158 01d2 1B01     		lsls	r3, r3, #4
 1159 01d4 1100     		movs	r1, r2
 1160 01d6 1940     		ands	r1, r3
 1161              	.LVL69:
 606:Drivers/STM32L0xx_HAL_Driver/Src/stm32l0xx_hal_rcc_ex.c **** 
 607:Drivers/STM32L0xx_HAL_Driver/Src/stm32l0xx_hal_rcc_ex.c ****       /* Check if LPUART1 clock selection is PCLK1 */
 608:Drivers/STM32L0xx_HAL_Driver/Src/stm32l0xx_hal_rcc_ex.c ****       if (srcclk == RCC_LPUART1CLKSOURCE_PCLK1)
 1162              		.loc 1 608 7 is_stmt 1 view .LVU329
 1163              		.loc 1 608 10 is_stmt 0 view .LVU330
 1164 01d8 1A42     		tst	r2, r3
 1165 01da 0DD0     		beq	.L115
 609:Drivers/STM32L0xx_HAL_Driver/Src/stm32l0xx_hal_rcc_ex.c ****       {
 610:Drivers/STM32L0xx_HAL_Driver/Src/stm32l0xx_hal_rcc_ex.c ****         frequency = HAL_RCC_GetPCLK1Freq();
 611:Drivers/STM32L0xx_HAL_Driver/Src/stm32l0xx_hal_rcc_ex.c ****       }
 612:Drivers/STM32L0xx_HAL_Driver/Src/stm32l0xx_hal_rcc_ex.c ****       /* Check if HSI is ready and if LPUART1 clock selection is HSI */
 613:Drivers/STM32L0xx_HAL_Driver/Src/stm32l0xx_hal_rcc_ex.c ****       else if (srcclk == RCC_LPUART1CLKSOURCE_HSI)
 1166              		.loc 1 613 12 is_stmt 1 view .LVU331
 1167              		.loc 1 613 15 is_stmt 0 view .LVU332
 1168 01dc 8023     		movs	r3, #128
 1169 01de 1B01     		lsls	r3, r3, #4
 1170 01e0 9942     		cmp	r1, r3
 1171 01e2 0CD0     		beq	.L116
 614:Drivers/STM32L0xx_HAL_Driver/Src/stm32l0xx_hal_rcc_ex.c ****       {
 615:Drivers/STM32L0xx_HAL_Driver/Src/stm32l0xx_hal_rcc_ex.c ****         if (HAL_IS_BIT_SET(RCC->CR, RCC_CR_HSIRDY))
 616:Drivers/STM32L0xx_HAL_Driver/Src/stm32l0xx_hal_rcc_ex.c ****         {
 617:Drivers/STM32L0xx_HAL_Driver/Src/stm32l0xx_hal_rcc_ex.c ****           if (READ_BIT(RCC->CR, RCC_CR_HSIDIVF) != 0U)
 618:Drivers/STM32L0xx_HAL_Driver/Src/stm32l0xx_hal_rcc_ex.c ****           {
 619:Drivers/STM32L0xx_HAL_Driver/Src/stm32l0xx_hal_rcc_ex.c ****             frequency =  (HSI_VALUE >> 2U);
 620:Drivers/STM32L0xx_HAL_Driver/Src/stm32l0xx_hal_rcc_ex.c ****           }
 621:Drivers/STM32L0xx_HAL_Driver/Src/stm32l0xx_hal_rcc_ex.c ****           else
 622:Drivers/STM32L0xx_HAL_Driver/Src/stm32l0xx_hal_rcc_ex.c ****           {
 623:Drivers/STM32L0xx_HAL_Driver/Src/stm32l0xx_hal_rcc_ex.c ****             frequency =  HSI_VALUE;
 624:Drivers/STM32L0xx_HAL_Driver/Src/stm32l0xx_hal_rcc_ex.c ****           }
 625:Drivers/STM32L0xx_HAL_Driver/Src/stm32l0xx_hal_rcc_ex.c ****         }
 626:Drivers/STM32L0xx_HAL_Driver/Src/stm32l0xx_hal_rcc_ex.c ****       }
 627:Drivers/STM32L0xx_HAL_Driver/Src/stm32l0xx_hal_rcc_ex.c ****       /* Check if LPUART1 clock selection is SYSCLK */
 628:Drivers/STM32L0xx_HAL_Driver/Src/stm32l0xx_hal_rcc_ex.c ****       else if (srcclk == RCC_LPUART1CLKSOURCE_SYSCLK)
 1172              		.loc 1 628 12 is_stmt 1 view .LVU333
 1173              		.loc 1 628 15 is_stmt 0 view .LVU334
 1174 01e4 8023     		movs	r3, #128
 1175 01e6 DB00     		lsls	r3, r3, #3
 1176 01e8 9942     		cmp	r1, r3
 1177 01ea 15D0     		beq	.L117
 629:Drivers/STM32L0xx_HAL_Driver/Src/stm32l0xx_hal_rcc_ex.c ****       {
 630:Drivers/STM32L0xx_HAL_Driver/Src/stm32l0xx_hal_rcc_ex.c ****         frequency = HAL_RCC_GetSysClockFreq();
 631:Drivers/STM32L0xx_HAL_Driver/Src/stm32l0xx_hal_rcc_ex.c ****       }
 632:Drivers/STM32L0xx_HAL_Driver/Src/stm32l0xx_hal_rcc_ex.c ****       /* Check if LSE is ready  and if LPUART1 clock selection is LSE */
ARM GAS  /tmp/cc6QWq81.s 			page 34


 633:Drivers/STM32L0xx_HAL_Driver/Src/stm32l0xx_hal_rcc_ex.c ****       else if (srcclk == RCC_LPUART1CLKSOURCE_LSE)
 1178              		.loc 1 633 12 is_stmt 1 view .LVU335
 1179              		.loc 1 633 15 is_stmt 0 view .LVU336
 1180 01ec C023     		movs	r3, #192
 1181 01ee 1B01     		lsls	r3, r3, #4
 1182 01f0 9942     		cmp	r1, r3
 1183 01f2 14D0     		beq	.L118
 384:Drivers/STM32L0xx_HAL_Driver/Src/stm32l0xx_hal_rcc_ex.c ****   uint32_t temp_reg, clkprediv, srcclk;    /* no init needed */
 1184              		.loc 1 384 12 view .LVU337
 1185 01f4 0020     		movs	r0, #0
 1186 01f6 50E0     		b	.L54
 1187              	.L115:
 610:Drivers/STM32L0xx_HAL_Driver/Src/stm32l0xx_hal_rcc_ex.c ****       }
 1188              		.loc 1 610 9 is_stmt 1 view .LVU338
 610:Drivers/STM32L0xx_HAL_Driver/Src/stm32l0xx_hal_rcc_ex.c ****       }
 1189              		.loc 1 610 21 is_stmt 0 view .LVU339
 1190 01f8 FFF7FEFF 		bl	HAL_RCC_GetPCLK1Freq
 1191              	.LVL70:
 610:Drivers/STM32L0xx_HAL_Driver/Src/stm32l0xx_hal_rcc_ex.c ****       }
 1192              		.loc 1 610 21 view .LVU340
 1193 01fc 4DE0     		b	.L54
 1194              	.LVL71:
 1195              	.L116:
 615:Drivers/STM32L0xx_HAL_Driver/Src/stm32l0xx_hal_rcc_ex.c ****         {
 1196              		.loc 1 615 9 is_stmt 1 view .LVU341
 615:Drivers/STM32L0xx_HAL_Driver/Src/stm32l0xx_hal_rcc_ex.c ****         {
 1197              		.loc 1 615 13 is_stmt 0 view .LVU342
 1198 01fe 2F4B     		ldr	r3, .L122+4
 1199 0200 1B68     		ldr	r3, [r3]
 1200 0202 0422     		movs	r2, #4
 1201 0204 1000     		movs	r0, r2
 1202 0206 1840     		ands	r0, r3
 615:Drivers/STM32L0xx_HAL_Driver/Src/stm32l0xx_hal_rcc_ex.c ****         {
 1203              		.loc 1 615 12 view .LVU343
 1204 0208 1A42     		tst	r2, r3
 1205 020a 46D0     		beq	.L54
 617:Drivers/STM32L0xx_HAL_Driver/Src/stm32l0xx_hal_rcc_ex.c ****           {
 1206              		.loc 1 617 11 is_stmt 1 view .LVU344
 617:Drivers/STM32L0xx_HAL_Driver/Src/stm32l0xx_hal_rcc_ex.c ****           {
 1207              		.loc 1 617 15 is_stmt 0 view .LVU345
 1208 020c 2B4B     		ldr	r3, .L122+4
 1209 020e 1B68     		ldr	r3, [r3]
 617:Drivers/STM32L0xx_HAL_Driver/Src/stm32l0xx_hal_rcc_ex.c ****           {
 1210              		.loc 1 617 14 view .LVU346
 1211 0210 DB06     		lsls	r3, r3, #27
 1212 0212 4DD5     		bpl	.L98
 619:Drivers/STM32L0xx_HAL_Driver/Src/stm32l0xx_hal_rcc_ex.c ****           }
 1213              		.loc 1 619 23 view .LVU347
 1214 0214 2B48     		ldr	r0, .L122+12
 1215 0216 40E0     		b	.L54
 1216              	.L117:
 630:Drivers/STM32L0xx_HAL_Driver/Src/stm32l0xx_hal_rcc_ex.c ****       }
 1217              		.loc 1 630 9 is_stmt 1 view .LVU348
 630:Drivers/STM32L0xx_HAL_Driver/Src/stm32l0xx_hal_rcc_ex.c ****       }
 1218              		.loc 1 630 21 is_stmt 0 view .LVU349
 1219 0218 FFF7FEFF 		bl	HAL_RCC_GetSysClockFreq
 1220              	.LVL72:
ARM GAS  /tmp/cc6QWq81.s 			page 35


 630:Drivers/STM32L0xx_HAL_Driver/Src/stm32l0xx_hal_rcc_ex.c ****       }
 1221              		.loc 1 630 21 view .LVU350
 1222 021c 3DE0     		b	.L54
 1223              	.LVL73:
 1224              	.L118:
 634:Drivers/STM32L0xx_HAL_Driver/Src/stm32l0xx_hal_rcc_ex.c ****       {
 635:Drivers/STM32L0xx_HAL_Driver/Src/stm32l0xx_hal_rcc_ex.c ****         if (HAL_IS_BIT_SET(RCC->CSR, RCC_CSR_LSERDY))
 1225              		.loc 1 635 9 is_stmt 1 view .LVU351
 1226              		.loc 1 635 13 is_stmt 0 view .LVU352
 1227 021e 274B     		ldr	r3, .L122+4
 1228 0220 1A6D     		ldr	r2, [r3, #80]
 1229 0222 8023     		movs	r3, #128
 1230 0224 9B00     		lsls	r3, r3, #2
 1231 0226 1000     		movs	r0, r2
 1232 0228 1840     		ands	r0, r3
 1233              		.loc 1 635 12 view .LVU353
 1234 022a 1A42     		tst	r2, r3
 1235 022c 35D0     		beq	.L54
 636:Drivers/STM32L0xx_HAL_Driver/Src/stm32l0xx_hal_rcc_ex.c ****         {
 637:Drivers/STM32L0xx_HAL_Driver/Src/stm32l0xx_hal_rcc_ex.c ****           frequency = LSE_VALUE;
 1236              		.loc 1 637 21 view .LVU354
 1237 022e 8020     		movs	r0, #128
 1238 0230 0002     		lsls	r0, r0, #8
 1239 0232 32E0     		b	.L54
 1240              	.LVL74:
 1241              	.L60:
 638:Drivers/STM32L0xx_HAL_Driver/Src/stm32l0xx_hal_rcc_ex.c ****         }
 639:Drivers/STM32L0xx_HAL_Driver/Src/stm32l0xx_hal_rcc_ex.c ****       }
 640:Drivers/STM32L0xx_HAL_Driver/Src/stm32l0xx_hal_rcc_ex.c ****       /* Clock not enabled for LPUART1*/
 641:Drivers/STM32L0xx_HAL_Driver/Src/stm32l0xx_hal_rcc_ex.c ****       else
 642:Drivers/STM32L0xx_HAL_Driver/Src/stm32l0xx_hal_rcc_ex.c ****       {
 643:Drivers/STM32L0xx_HAL_Driver/Src/stm32l0xx_hal_rcc_ex.c ****         /* nothing to do: frequency already initialized to 0U */
 644:Drivers/STM32L0xx_HAL_Driver/Src/stm32l0xx_hal_rcc_ex.c ****       }
 645:Drivers/STM32L0xx_HAL_Driver/Src/stm32l0xx_hal_rcc_ex.c ****       break;
 646:Drivers/STM32L0xx_HAL_Driver/Src/stm32l0xx_hal_rcc_ex.c ****     }
 647:Drivers/STM32L0xx_HAL_Driver/Src/stm32l0xx_hal_rcc_ex.c ****   case RCC_PERIPHCLK_I2C1:
 648:Drivers/STM32L0xx_HAL_Driver/Src/stm32l0xx_hal_rcc_ex.c ****     {
 649:Drivers/STM32L0xx_HAL_Driver/Src/stm32l0xx_hal_rcc_ex.c ****       /* Get the current I2C1 source */
 650:Drivers/STM32L0xx_HAL_Driver/Src/stm32l0xx_hal_rcc_ex.c ****       srcclk = __HAL_RCC_GET_I2C1_SOURCE();
 1242              		.loc 1 650 7 is_stmt 1 view .LVU355
 1243              		.loc 1 650 16 is_stmt 0 view .LVU356
 1244 0234 214B     		ldr	r3, .L122+4
 1245 0236 DA6C     		ldr	r2, [r3, #76]
 1246              		.loc 1 650 14 view .LVU357
 1247 0238 C023     		movs	r3, #192
 1248 023a 9B01     		lsls	r3, r3, #6
 1249 023c 1100     		movs	r1, r2
 1250 023e 1940     		ands	r1, r3
 1251              	.LVL75:
 651:Drivers/STM32L0xx_HAL_Driver/Src/stm32l0xx_hal_rcc_ex.c **** 
 652:Drivers/STM32L0xx_HAL_Driver/Src/stm32l0xx_hal_rcc_ex.c ****       /* Check if I2C1 clock selection is PCLK1 */
 653:Drivers/STM32L0xx_HAL_Driver/Src/stm32l0xx_hal_rcc_ex.c ****       if (srcclk == RCC_I2C1CLKSOURCE_PCLK1)
 1252              		.loc 1 653 7 is_stmt 1 view .LVU358
 1253              		.loc 1 653 10 is_stmt 0 view .LVU359
 1254 0240 1A42     		tst	r2, r3
 1255 0242 09D0     		beq	.L119
 654:Drivers/STM32L0xx_HAL_Driver/Src/stm32l0xx_hal_rcc_ex.c ****       {
ARM GAS  /tmp/cc6QWq81.s 			page 36


 655:Drivers/STM32L0xx_HAL_Driver/Src/stm32l0xx_hal_rcc_ex.c ****         frequency = HAL_RCC_GetPCLK1Freq();
 656:Drivers/STM32L0xx_HAL_Driver/Src/stm32l0xx_hal_rcc_ex.c ****       }
 657:Drivers/STM32L0xx_HAL_Driver/Src/stm32l0xx_hal_rcc_ex.c ****       /* Check if HSI is ready and if I2C1 clock selection is HSI */
 658:Drivers/STM32L0xx_HAL_Driver/Src/stm32l0xx_hal_rcc_ex.c ****       else if (srcclk == RCC_I2C1CLKSOURCE_HSI)
 1256              		.loc 1 658 12 is_stmt 1 view .LVU360
 1257              		.loc 1 658 15 is_stmt 0 view .LVU361
 1258 0244 8023     		movs	r3, #128
 1259 0246 9B01     		lsls	r3, r3, #6
 1260 0248 9942     		cmp	r1, r3
 1261 024a 08D0     		beq	.L120
 659:Drivers/STM32L0xx_HAL_Driver/Src/stm32l0xx_hal_rcc_ex.c ****       {
 660:Drivers/STM32L0xx_HAL_Driver/Src/stm32l0xx_hal_rcc_ex.c ****         if (HAL_IS_BIT_SET(RCC->CR, RCC_CR_HSIRDY))
 661:Drivers/STM32L0xx_HAL_Driver/Src/stm32l0xx_hal_rcc_ex.c ****         {
 662:Drivers/STM32L0xx_HAL_Driver/Src/stm32l0xx_hal_rcc_ex.c ****           if (READ_BIT(RCC->CR, RCC_CR_HSIDIVF) != 0U)
 663:Drivers/STM32L0xx_HAL_Driver/Src/stm32l0xx_hal_rcc_ex.c ****           {
 664:Drivers/STM32L0xx_HAL_Driver/Src/stm32l0xx_hal_rcc_ex.c ****             frequency =  (HSI_VALUE >> 2U);
 665:Drivers/STM32L0xx_HAL_Driver/Src/stm32l0xx_hal_rcc_ex.c ****           }
 666:Drivers/STM32L0xx_HAL_Driver/Src/stm32l0xx_hal_rcc_ex.c ****           else
 667:Drivers/STM32L0xx_HAL_Driver/Src/stm32l0xx_hal_rcc_ex.c ****           {
 668:Drivers/STM32L0xx_HAL_Driver/Src/stm32l0xx_hal_rcc_ex.c ****             frequency =  HSI_VALUE;
 669:Drivers/STM32L0xx_HAL_Driver/Src/stm32l0xx_hal_rcc_ex.c ****           }
 670:Drivers/STM32L0xx_HAL_Driver/Src/stm32l0xx_hal_rcc_ex.c ****         }
 671:Drivers/STM32L0xx_HAL_Driver/Src/stm32l0xx_hal_rcc_ex.c ****       }
 672:Drivers/STM32L0xx_HAL_Driver/Src/stm32l0xx_hal_rcc_ex.c ****       /* Check if I2C1 clock selection is SYSCLK */
 673:Drivers/STM32L0xx_HAL_Driver/Src/stm32l0xx_hal_rcc_ex.c ****       else if (srcclk == RCC_I2C1CLKSOURCE_SYSCLK)
 1262              		.loc 1 673 12 is_stmt 1 view .LVU362
 1263              		.loc 1 673 15 is_stmt 0 view .LVU363
 1264 024c 8023     		movs	r3, #128
 1265 024e 5B01     		lsls	r3, r3, #5
 1266 0250 9942     		cmp	r1, r3
 1267 0252 11D0     		beq	.L121
 384:Drivers/STM32L0xx_HAL_Driver/Src/stm32l0xx_hal_rcc_ex.c ****   uint32_t temp_reg, clkprediv, srcclk;    /* no init needed */
 1268              		.loc 1 384 12 view .LVU364
 1269 0254 0020     		movs	r0, #0
 674:Drivers/STM32L0xx_HAL_Driver/Src/stm32l0xx_hal_rcc_ex.c ****       {
 675:Drivers/STM32L0xx_HAL_Driver/Src/stm32l0xx_hal_rcc_ex.c ****         frequency = HAL_RCC_GetSysClockFreq();
 676:Drivers/STM32L0xx_HAL_Driver/Src/stm32l0xx_hal_rcc_ex.c ****       }
 677:Drivers/STM32L0xx_HAL_Driver/Src/stm32l0xx_hal_rcc_ex.c ****       /* Clock not enabled for I2C1*/
 678:Drivers/STM32L0xx_HAL_Driver/Src/stm32l0xx_hal_rcc_ex.c ****       else
 679:Drivers/STM32L0xx_HAL_Driver/Src/stm32l0xx_hal_rcc_ex.c ****       {
 680:Drivers/STM32L0xx_HAL_Driver/Src/stm32l0xx_hal_rcc_ex.c ****         /* nothing to do: frequency already initialized to 0U */
 681:Drivers/STM32L0xx_HAL_Driver/Src/stm32l0xx_hal_rcc_ex.c ****       }
 682:Drivers/STM32L0xx_HAL_Driver/Src/stm32l0xx_hal_rcc_ex.c ****       break;
 683:Drivers/STM32L0xx_HAL_Driver/Src/stm32l0xx_hal_rcc_ex.c ****     }
 684:Drivers/STM32L0xx_HAL_Driver/Src/stm32l0xx_hal_rcc_ex.c **** #if defined(I2C2)
 685:Drivers/STM32L0xx_HAL_Driver/Src/stm32l0xx_hal_rcc_ex.c ****   case RCC_PERIPHCLK_I2C2:
 686:Drivers/STM32L0xx_HAL_Driver/Src/stm32l0xx_hal_rcc_ex.c ****     {
 687:Drivers/STM32L0xx_HAL_Driver/Src/stm32l0xx_hal_rcc_ex.c **** 
 688:Drivers/STM32L0xx_HAL_Driver/Src/stm32l0xx_hal_rcc_ex.c ****       /* Check if I2C2 on APB1 clock enabled*/
 689:Drivers/STM32L0xx_HAL_Driver/Src/stm32l0xx_hal_rcc_ex.c ****       if (READ_BIT(RCC->APB1ENR, (RCC_APB1ENR_I2C2EN))==RCC_APB1ENR_I2C2EN)
 690:Drivers/STM32L0xx_HAL_Driver/Src/stm32l0xx_hal_rcc_ex.c ****       {
 691:Drivers/STM32L0xx_HAL_Driver/Src/stm32l0xx_hal_rcc_ex.c ****         frequency = HAL_RCC_GetPCLK1Freq();
 692:Drivers/STM32L0xx_HAL_Driver/Src/stm32l0xx_hal_rcc_ex.c ****       }
 693:Drivers/STM32L0xx_HAL_Driver/Src/stm32l0xx_hal_rcc_ex.c ****       else
 694:Drivers/STM32L0xx_HAL_Driver/Src/stm32l0xx_hal_rcc_ex.c ****       {
 695:Drivers/STM32L0xx_HAL_Driver/Src/stm32l0xx_hal_rcc_ex.c ****         /* nothing to do: frequency already initialized to 0U */
 696:Drivers/STM32L0xx_HAL_Driver/Src/stm32l0xx_hal_rcc_ex.c ****       }
ARM GAS  /tmp/cc6QWq81.s 			page 37


 697:Drivers/STM32L0xx_HAL_Driver/Src/stm32l0xx_hal_rcc_ex.c ****       break;
 698:Drivers/STM32L0xx_HAL_Driver/Src/stm32l0xx_hal_rcc_ex.c ****     }
 699:Drivers/STM32L0xx_HAL_Driver/Src/stm32l0xx_hal_rcc_ex.c **** #endif /* I2C2 */
 700:Drivers/STM32L0xx_HAL_Driver/Src/stm32l0xx_hal_rcc_ex.c **** 
 701:Drivers/STM32L0xx_HAL_Driver/Src/stm32l0xx_hal_rcc_ex.c **** #if defined(RCC_CCIPR_I2C3SEL)
 702:Drivers/STM32L0xx_HAL_Driver/Src/stm32l0xx_hal_rcc_ex.c ****   case RCC_PERIPHCLK_I2C3:
 703:Drivers/STM32L0xx_HAL_Driver/Src/stm32l0xx_hal_rcc_ex.c ****     {
 704:Drivers/STM32L0xx_HAL_Driver/Src/stm32l0xx_hal_rcc_ex.c ****       /* Get the current I2C3 source */
 705:Drivers/STM32L0xx_HAL_Driver/Src/stm32l0xx_hal_rcc_ex.c ****       srcclk = __HAL_RCC_GET_I2C3_SOURCE();
 706:Drivers/STM32L0xx_HAL_Driver/Src/stm32l0xx_hal_rcc_ex.c **** 
 707:Drivers/STM32L0xx_HAL_Driver/Src/stm32l0xx_hal_rcc_ex.c ****       /* Check if I2C3 clock selection is PCLK1 */
 708:Drivers/STM32L0xx_HAL_Driver/Src/stm32l0xx_hal_rcc_ex.c ****       if (srcclk == RCC_I2C3CLKSOURCE_PCLK1)
 709:Drivers/STM32L0xx_HAL_Driver/Src/stm32l0xx_hal_rcc_ex.c ****       {
 710:Drivers/STM32L0xx_HAL_Driver/Src/stm32l0xx_hal_rcc_ex.c ****         frequency = HAL_RCC_GetPCLK1Freq();
 711:Drivers/STM32L0xx_HAL_Driver/Src/stm32l0xx_hal_rcc_ex.c ****       }
 712:Drivers/STM32L0xx_HAL_Driver/Src/stm32l0xx_hal_rcc_ex.c ****       /* Check if HSI is ready and if I2C3 clock selection is HSI */
 713:Drivers/STM32L0xx_HAL_Driver/Src/stm32l0xx_hal_rcc_ex.c ****       else if (srcclk == RCC_I2C3CLKSOURCE_HSI)
 714:Drivers/STM32L0xx_HAL_Driver/Src/stm32l0xx_hal_rcc_ex.c ****       {
 715:Drivers/STM32L0xx_HAL_Driver/Src/stm32l0xx_hal_rcc_ex.c ****         if (HAL_IS_BIT_SET(RCC->CR, RCC_CR_HSIRDY))
 716:Drivers/STM32L0xx_HAL_Driver/Src/stm32l0xx_hal_rcc_ex.c ****         {
 717:Drivers/STM32L0xx_HAL_Driver/Src/stm32l0xx_hal_rcc_ex.c ****           if (READ_BIT(RCC->CR, RCC_CR_HSIDIVF) != 0U)
 718:Drivers/STM32L0xx_HAL_Driver/Src/stm32l0xx_hal_rcc_ex.c ****           {
 719:Drivers/STM32L0xx_HAL_Driver/Src/stm32l0xx_hal_rcc_ex.c ****             frequency =  (HSI_VALUE >> 2U);
 720:Drivers/STM32L0xx_HAL_Driver/Src/stm32l0xx_hal_rcc_ex.c ****           }
 721:Drivers/STM32L0xx_HAL_Driver/Src/stm32l0xx_hal_rcc_ex.c ****           else
 722:Drivers/STM32L0xx_HAL_Driver/Src/stm32l0xx_hal_rcc_ex.c ****           {
 723:Drivers/STM32L0xx_HAL_Driver/Src/stm32l0xx_hal_rcc_ex.c ****             frequency =  HSI_VALUE;
 724:Drivers/STM32L0xx_HAL_Driver/Src/stm32l0xx_hal_rcc_ex.c ****           }
 725:Drivers/STM32L0xx_HAL_Driver/Src/stm32l0xx_hal_rcc_ex.c ****         }
 726:Drivers/STM32L0xx_HAL_Driver/Src/stm32l0xx_hal_rcc_ex.c ****       }
 727:Drivers/STM32L0xx_HAL_Driver/Src/stm32l0xx_hal_rcc_ex.c ****       /* Check if I2C3 clock selection is SYSCLK */
 728:Drivers/STM32L0xx_HAL_Driver/Src/stm32l0xx_hal_rcc_ex.c ****       else if (srcclk == RCC_I2C3CLKSOURCE_SYSCLK)
 729:Drivers/STM32L0xx_HAL_Driver/Src/stm32l0xx_hal_rcc_ex.c ****       {
 730:Drivers/STM32L0xx_HAL_Driver/Src/stm32l0xx_hal_rcc_ex.c ****         frequency = HAL_RCC_GetSysClockFreq();
 731:Drivers/STM32L0xx_HAL_Driver/Src/stm32l0xx_hal_rcc_ex.c ****       }
 732:Drivers/STM32L0xx_HAL_Driver/Src/stm32l0xx_hal_rcc_ex.c ****       /* Clock not enabled for I2C3*/
 733:Drivers/STM32L0xx_HAL_Driver/Src/stm32l0xx_hal_rcc_ex.c ****       else
 734:Drivers/STM32L0xx_HAL_Driver/Src/stm32l0xx_hal_rcc_ex.c ****       {
 735:Drivers/STM32L0xx_HAL_Driver/Src/stm32l0xx_hal_rcc_ex.c ****         /* nothing to do: frequency already initialized to 0U */
 736:Drivers/STM32L0xx_HAL_Driver/Src/stm32l0xx_hal_rcc_ex.c ****       }
 737:Drivers/STM32L0xx_HAL_Driver/Src/stm32l0xx_hal_rcc_ex.c ****       break;
 738:Drivers/STM32L0xx_HAL_Driver/Src/stm32l0xx_hal_rcc_ex.c ****     }
 739:Drivers/STM32L0xx_HAL_Driver/Src/stm32l0xx_hal_rcc_ex.c **** #endif /* RCC_CCIPR_I2C3SEL */
 740:Drivers/STM32L0xx_HAL_Driver/Src/stm32l0xx_hal_rcc_ex.c ****   default:
 741:Drivers/STM32L0xx_HAL_Driver/Src/stm32l0xx_hal_rcc_ex.c ****     {
 742:Drivers/STM32L0xx_HAL_Driver/Src/stm32l0xx_hal_rcc_ex.c ****       break;
 743:Drivers/STM32L0xx_HAL_Driver/Src/stm32l0xx_hal_rcc_ex.c ****     }
 744:Drivers/STM32L0xx_HAL_Driver/Src/stm32l0xx_hal_rcc_ex.c ****   }
 745:Drivers/STM32L0xx_HAL_Driver/Src/stm32l0xx_hal_rcc_ex.c ****   return(frequency);
 1270              		.loc 1 745 3 is_stmt 1 view .LVU365
 1271              		.loc 1 745 9 is_stmt 0 view .LVU366
 1272 0256 20E0     		b	.L54
 1273              	.L119:
 655:Drivers/STM32L0xx_HAL_Driver/Src/stm32l0xx_hal_rcc_ex.c ****       }
 1274              		.loc 1 655 9 is_stmt 1 view .LVU367
 655:Drivers/STM32L0xx_HAL_Driver/Src/stm32l0xx_hal_rcc_ex.c ****       }
 1275              		.loc 1 655 21 is_stmt 0 view .LVU368
ARM GAS  /tmp/cc6QWq81.s 			page 38


 1276 0258 FFF7FEFF 		bl	HAL_RCC_GetPCLK1Freq
 1277              	.LVL76:
 655:Drivers/STM32L0xx_HAL_Driver/Src/stm32l0xx_hal_rcc_ex.c ****       }
 1278              		.loc 1 655 21 view .LVU369
 1279 025c 1DE0     		b	.L54
 1280              	.LVL77:
 1281              	.L120:
 660:Drivers/STM32L0xx_HAL_Driver/Src/stm32l0xx_hal_rcc_ex.c ****         {
 1282              		.loc 1 660 9 is_stmt 1 view .LVU370
 660:Drivers/STM32L0xx_HAL_Driver/Src/stm32l0xx_hal_rcc_ex.c ****         {
 1283              		.loc 1 660 13 is_stmt 0 view .LVU371
 1284 025e 174B     		ldr	r3, .L122+4
 1285 0260 1B68     		ldr	r3, [r3]
 1286 0262 0422     		movs	r2, #4
 1287 0264 1000     		movs	r0, r2
 1288 0266 1840     		ands	r0, r3
 660:Drivers/STM32L0xx_HAL_Driver/Src/stm32l0xx_hal_rcc_ex.c ****         {
 1289              		.loc 1 660 12 view .LVU372
 1290 0268 1A42     		tst	r2, r3
 1291 026a 16D0     		beq	.L54
 662:Drivers/STM32L0xx_HAL_Driver/Src/stm32l0xx_hal_rcc_ex.c ****           {
 1292              		.loc 1 662 11 is_stmt 1 view .LVU373
 662:Drivers/STM32L0xx_HAL_Driver/Src/stm32l0xx_hal_rcc_ex.c ****           {
 1293              		.loc 1 662 15 is_stmt 0 view .LVU374
 1294 026c 134B     		ldr	r3, .L122+4
 1295 026e 1B68     		ldr	r3, [r3]
 662:Drivers/STM32L0xx_HAL_Driver/Src/stm32l0xx_hal_rcc_ex.c ****           {
 1296              		.loc 1 662 14 view .LVU375
 1297 0270 DB06     		lsls	r3, r3, #27
 1298 0272 1FD5     		bpl	.L101
 664:Drivers/STM32L0xx_HAL_Driver/Src/stm32l0xx_hal_rcc_ex.c ****           }
 1299              		.loc 1 664 23 view .LVU376
 1300 0274 1348     		ldr	r0, .L122+12
 1301 0276 10E0     		b	.L54
 1302              	.L121:
 675:Drivers/STM32L0xx_HAL_Driver/Src/stm32l0xx_hal_rcc_ex.c ****       }
 1303              		.loc 1 675 9 is_stmt 1 view .LVU377
 675:Drivers/STM32L0xx_HAL_Driver/Src/stm32l0xx_hal_rcc_ex.c ****       }
 1304              		.loc 1 675 21 is_stmt 0 view .LVU378
 1305 0278 FFF7FEFF 		bl	HAL_RCC_GetSysClockFreq
 1306              	.LVL78:
 675:Drivers/STM32L0xx_HAL_Driver/Src/stm32l0xx_hal_rcc_ex.c ****       }
 1307              		.loc 1 675 21 view .LVU379
 1308 027c 0DE0     		b	.L54
 1309              	.LVL79:
 1310              	.L59:
 689:Drivers/STM32L0xx_HAL_Driver/Src/stm32l0xx_hal_rcc_ex.c ****       {
 1311              		.loc 1 689 7 is_stmt 1 view .LVU380
 689:Drivers/STM32L0xx_HAL_Driver/Src/stm32l0xx_hal_rcc_ex.c ****       {
 1312              		.loc 1 689 11 is_stmt 0 view .LVU381
 1313 027e 0F4B     		ldr	r3, .L122+4
 1314 0280 9A6B     		ldr	r2, [r3, #56]
 1315 0282 8023     		movs	r3, #128
 1316 0284 DB03     		lsls	r3, r3, #15
 1317 0286 1000     		movs	r0, r2
 1318 0288 1840     		ands	r0, r3
 689:Drivers/STM32L0xx_HAL_Driver/Src/stm32l0xx_hal_rcc_ex.c ****       {
ARM GAS  /tmp/cc6QWq81.s 			page 39


 1319              		.loc 1 689 10 view .LVU382
 1320 028a 1A42     		tst	r2, r3
 1321 028c 05D0     		beq	.L54
 691:Drivers/STM32L0xx_HAL_Driver/Src/stm32l0xx_hal_rcc_ex.c ****       }
 1322              		.loc 1 691 9 is_stmt 1 view .LVU383
 691:Drivers/STM32L0xx_HAL_Driver/Src/stm32l0xx_hal_rcc_ex.c ****       }
 1323              		.loc 1 691 21 is_stmt 0 view .LVU384
 1324 028e FFF7FEFF 		bl	HAL_RCC_GetPCLK1Freq
 1325              	.LVL80:
 691:Drivers/STM32L0xx_HAL_Driver/Src/stm32l0xx_hal_rcc_ex.c ****       }
 1326              		.loc 1 691 21 view .LVU385
 1327 0292 02E0     		b	.L54
 1328              	.LVL81:
 1329              	.L80:
 393:Drivers/STM32L0xx_HAL_Driver/Src/stm32l0xx_hal_rcc_ex.c ****   {
 1330              		.loc 1 393 3 view .LVU386
 1331 0294 0020     		movs	r0, #0
 1332              	.LVL82:
 393:Drivers/STM32L0xx_HAL_Driver/Src/stm32l0xx_hal_rcc_ex.c ****   {
 1333              		.loc 1 393 3 view .LVU387
 1334 0296 00E0     		b	.L54
 1335              	.L81:
 1336 0298 0020     		movs	r0, #0
 1337              	.LVL83:
 1338              	.L54:
 746:Drivers/STM32L0xx_HAL_Driver/Src/stm32l0xx_hal_rcc_ex.c **** }
 1339              		.loc 1 746 1 view .LVU388
 1340              		@ sp needed
 1341 029a 10BD     		pop	{r4, pc}
 1342              	.LVL84:
 1343              	.L82:
 393:Drivers/STM32L0xx_HAL_Driver/Src/stm32l0xx_hal_rcc_ex.c ****   {
 1344              		.loc 1 393 3 view .LVU389
 1345 029c 0020     		movs	r0, #0
 1346              	.LVL85:
 393:Drivers/STM32L0xx_HAL_Driver/Src/stm32l0xx_hal_rcc_ex.c ****   {
 1347              		.loc 1 393 3 view .LVU390
 1348 029e FCE7     		b	.L54
 1349              	.LVL86:
 1350              	.L86:
 436:Drivers/STM32L0xx_HAL_Driver/Src/stm32l0xx_hal_rcc_ex.c ****               break;
 1351              		.loc 1 436 25 view .LVU391
 1352 02a0 0E48     		ldr	r0, .L122+36
 1353 02a2 FAE7     		b	.L54
 1354              	.L87:
 1355 02a4 0E48     		ldr	r0, .L122+40
 1356 02a6 F8E7     		b	.L54
 1357              	.LVL87:
 1358              	.L92:
 532:Drivers/STM32L0xx_HAL_Driver/Src/stm32l0xx_hal_rcc_ex.c ****           }
 1359              		.loc 1 532 23 view .LVU392
 1360 02a8 0A48     		ldr	r0, .L122+28
 1361 02aa F6E7     		b	.L54
 1362              	.L95:
 578:Drivers/STM32L0xx_HAL_Driver/Src/stm32l0xx_hal_rcc_ex.c ****           }
 1363              		.loc 1 578 23 view .LVU393
 1364 02ac 0948     		ldr	r0, .L122+28
ARM GAS  /tmp/cc6QWq81.s 			page 40


 1365 02ae F4E7     		b	.L54
 1366              	.L98:
 623:Drivers/STM32L0xx_HAL_Driver/Src/stm32l0xx_hal_rcc_ex.c ****           }
 1367              		.loc 1 623 23 view .LVU394
 1368 02b0 0848     		ldr	r0, .L122+28
 1369 02b2 F2E7     		b	.L54
 1370              	.L101:
 668:Drivers/STM32L0xx_HAL_Driver/Src/stm32l0xx_hal_rcc_ex.c ****           }
 1371              		.loc 1 668 23 view .LVU395
 1372 02b4 0748     		ldr	r0, .L122+28
 1373 02b6 F0E7     		b	.L54
 1374              	.L123:
 1375              		.align	2
 1376              	.L122:
 1377 02b8 00000000 		.word	.L58
 1378 02bc 00100240 		.word	1073876992
 1379 02c0 88900000 		.word	37000
 1380 02c4 00093D00 		.word	4000000
 1381 02c8 80841E00 		.word	2000000
 1382 02cc 00000000 		.word	PLLMulTable
 1383 02d0 00127A00 		.word	8000000
 1384 02d4 0024F400 		.word	16000000
 1385 02d8 006CDC02 		.word	48000000
 1386 02dc 40420F00 		.word	1000000
 1387 02e0 20A10700 		.word	500000
 1388              		.cfi_endproc
 1389              	.LFE49:
 1391              		.section	.text.HAL_RCCEx_EnableLSECSS,"ax",%progbits
 1392              		.align	1
 1393              		.global	HAL_RCCEx_EnableLSECSS
 1394              		.syntax unified
 1395              		.code	16
 1396              		.thumb_func
 1398              	HAL_RCCEx_EnableLSECSS:
 1399              	.LFB50:
 747:Drivers/STM32L0xx_HAL_Driver/Src/stm32l0xx_hal_rcc_ex.c **** 
 748:Drivers/STM32L0xx_HAL_Driver/Src/stm32l0xx_hal_rcc_ex.c **** /**
 749:Drivers/STM32L0xx_HAL_Driver/Src/stm32l0xx_hal_rcc_ex.c ****   * @brief  Enables the LSE Clock Security System.
 750:Drivers/STM32L0xx_HAL_Driver/Src/stm32l0xx_hal_rcc_ex.c ****   * @retval None
 751:Drivers/STM32L0xx_HAL_Driver/Src/stm32l0xx_hal_rcc_ex.c ****   */
 752:Drivers/STM32L0xx_HAL_Driver/Src/stm32l0xx_hal_rcc_ex.c **** void HAL_RCCEx_EnableLSECSS(void)
 753:Drivers/STM32L0xx_HAL_Driver/Src/stm32l0xx_hal_rcc_ex.c **** {
 1400              		.loc 1 753 1 is_stmt 1 view -0
 1401              		.cfi_startproc
 1402              		@ args = 0, pretend = 0, frame = 0
 1403              		@ frame_needed = 0, uses_anonymous_args = 0
 1404              		@ link register save eliminated.
 754:Drivers/STM32L0xx_HAL_Driver/Src/stm32l0xx_hal_rcc_ex.c ****   SET_BIT(RCC->CSR, RCC_CSR_LSECSSON) ;
 1405              		.loc 1 754 3 view .LVU397
 1406 0000 034A     		ldr	r2, .L125
 1407 0002 116D     		ldr	r1, [r2, #80]
 1408 0004 8023     		movs	r3, #128
 1409 0006 9B01     		lsls	r3, r3, #6
 1410 0008 0B43     		orrs	r3, r1
 1411 000a 1365     		str	r3, [r2, #80]
 755:Drivers/STM32L0xx_HAL_Driver/Src/stm32l0xx_hal_rcc_ex.c **** }
 1412              		.loc 1 755 1 is_stmt 0 view .LVU398
ARM GAS  /tmp/cc6QWq81.s 			page 41


 1413              		@ sp needed
 1414 000c 7047     		bx	lr
 1415              	.L126:
 1416 000e C046     		.align	2
 1417              	.L125:
 1418 0010 00100240 		.word	1073876992
 1419              		.cfi_endproc
 1420              	.LFE50:
 1422              		.section	.text.HAL_RCCEx_DisableLSECSS,"ax",%progbits
 1423              		.align	1
 1424              		.global	HAL_RCCEx_DisableLSECSS
 1425              		.syntax unified
 1426              		.code	16
 1427              		.thumb_func
 1429              	HAL_RCCEx_DisableLSECSS:
 1430              	.LFB51:
 756:Drivers/STM32L0xx_HAL_Driver/Src/stm32l0xx_hal_rcc_ex.c **** 
 757:Drivers/STM32L0xx_HAL_Driver/Src/stm32l0xx_hal_rcc_ex.c **** /**
 758:Drivers/STM32L0xx_HAL_Driver/Src/stm32l0xx_hal_rcc_ex.c ****   * @brief  Disables the LSE Clock Security System.
 759:Drivers/STM32L0xx_HAL_Driver/Src/stm32l0xx_hal_rcc_ex.c ****   * @note   Once enabled this bit cannot be disabled, except after an LSE failure detection
 760:Drivers/STM32L0xx_HAL_Driver/Src/stm32l0xx_hal_rcc_ex.c ****   *         (LSECSSD=1). In that case the software MUST disable the LSECSSON bit.
 761:Drivers/STM32L0xx_HAL_Driver/Src/stm32l0xx_hal_rcc_ex.c ****   *         Reset by power on reset and RTC software reset (RTCRST bit).
 762:Drivers/STM32L0xx_HAL_Driver/Src/stm32l0xx_hal_rcc_ex.c ****   * @retval None
 763:Drivers/STM32L0xx_HAL_Driver/Src/stm32l0xx_hal_rcc_ex.c ****   */
 764:Drivers/STM32L0xx_HAL_Driver/Src/stm32l0xx_hal_rcc_ex.c **** void HAL_RCCEx_DisableLSECSS(void)
 765:Drivers/STM32L0xx_HAL_Driver/Src/stm32l0xx_hal_rcc_ex.c **** {
 1431              		.loc 1 765 1 is_stmt 1 view -0
 1432              		.cfi_startproc
 1433              		@ args = 0, pretend = 0, frame = 0
 1434              		@ frame_needed = 0, uses_anonymous_args = 0
 1435              		@ link register save eliminated.
 766:Drivers/STM32L0xx_HAL_Driver/Src/stm32l0xx_hal_rcc_ex.c ****   /* Disable LSE CSS */
 767:Drivers/STM32L0xx_HAL_Driver/Src/stm32l0xx_hal_rcc_ex.c ****    CLEAR_BIT(RCC->CSR, RCC_CSR_LSECSSON) ;
 1436              		.loc 1 767 4 view .LVU400
 1437 0000 044B     		ldr	r3, .L128
 1438 0002 1A6D     		ldr	r2, [r3, #80]
 1439 0004 0449     		ldr	r1, .L128+4
 1440 0006 0A40     		ands	r2, r1
 1441 0008 1A65     		str	r2, [r3, #80]
 768:Drivers/STM32L0xx_HAL_Driver/Src/stm32l0xx_hal_rcc_ex.c **** 
 769:Drivers/STM32L0xx_HAL_Driver/Src/stm32l0xx_hal_rcc_ex.c ****   /* Disable LSE CSS IT */
 770:Drivers/STM32L0xx_HAL_Driver/Src/stm32l0xx_hal_rcc_ex.c ****   __HAL_RCC_DISABLE_IT(RCC_IT_LSECSS);
 1442              		.loc 1 770 3 view .LVU401
 1443 000a 1A69     		ldr	r2, [r3, #16]
 1444 000c 8021     		movs	r1, #128
 1445 000e 8A43     		bics	r2, r1
 1446 0010 1A61     		str	r2, [r3, #16]
 771:Drivers/STM32L0xx_HAL_Driver/Src/stm32l0xx_hal_rcc_ex.c **** }
 1447              		.loc 1 771 1 is_stmt 0 view .LVU402
 1448              		@ sp needed
 1449 0012 7047     		bx	lr
 1450              	.L129:
 1451              		.align	2
 1452              	.L128:
 1453 0014 00100240 		.word	1073876992
 1454 0018 FFDFFFFF 		.word	-8193
 1455              		.cfi_endproc
ARM GAS  /tmp/cc6QWq81.s 			page 42


 1456              	.LFE51:
 1458              		.section	.text.HAL_RCCEx_EnableLSECSS_IT,"ax",%progbits
 1459              		.align	1
 1460              		.global	HAL_RCCEx_EnableLSECSS_IT
 1461              		.syntax unified
 1462              		.code	16
 1463              		.thumb_func
 1465              	HAL_RCCEx_EnableLSECSS_IT:
 1466              	.LFB52:
 772:Drivers/STM32L0xx_HAL_Driver/Src/stm32l0xx_hal_rcc_ex.c **** 
 773:Drivers/STM32L0xx_HAL_Driver/Src/stm32l0xx_hal_rcc_ex.c **** /**
 774:Drivers/STM32L0xx_HAL_Driver/Src/stm32l0xx_hal_rcc_ex.c ****   * @brief  Enable the LSE Clock Security System IT & corresponding EXTI line.
 775:Drivers/STM32L0xx_HAL_Driver/Src/stm32l0xx_hal_rcc_ex.c ****   * @note   LSE Clock Security System IT is mapped on RTC EXTI line 19
 776:Drivers/STM32L0xx_HAL_Driver/Src/stm32l0xx_hal_rcc_ex.c ****   * @retval None
 777:Drivers/STM32L0xx_HAL_Driver/Src/stm32l0xx_hal_rcc_ex.c ****   */
 778:Drivers/STM32L0xx_HAL_Driver/Src/stm32l0xx_hal_rcc_ex.c **** void HAL_RCCEx_EnableLSECSS_IT(void)
 779:Drivers/STM32L0xx_HAL_Driver/Src/stm32l0xx_hal_rcc_ex.c **** {
 1467              		.loc 1 779 1 is_stmt 1 view -0
 1468              		.cfi_startproc
 1469              		@ args = 0, pretend = 0, frame = 0
 1470              		@ frame_needed = 0, uses_anonymous_args = 0
 1471              		@ link register save eliminated.
 780:Drivers/STM32L0xx_HAL_Driver/Src/stm32l0xx_hal_rcc_ex.c ****   /* Enable LSE CSS */
 781:Drivers/STM32L0xx_HAL_Driver/Src/stm32l0xx_hal_rcc_ex.c ****    SET_BIT(RCC->CSR, RCC_CSR_LSECSSON) ;
 1472              		.loc 1 781 4 view .LVU404
 1473 0000 094B     		ldr	r3, .L131
 1474 0002 196D     		ldr	r1, [r3, #80]
 1475 0004 8022     		movs	r2, #128
 1476 0006 9201     		lsls	r2, r2, #6
 1477 0008 0A43     		orrs	r2, r1
 1478 000a 1A65     		str	r2, [r3, #80]
 782:Drivers/STM32L0xx_HAL_Driver/Src/stm32l0xx_hal_rcc_ex.c **** 
 783:Drivers/STM32L0xx_HAL_Driver/Src/stm32l0xx_hal_rcc_ex.c ****   /* Enable LSE CSS IT */
 784:Drivers/STM32L0xx_HAL_Driver/Src/stm32l0xx_hal_rcc_ex.c ****   __HAL_RCC_ENABLE_IT(RCC_IT_LSECSS);
 1479              		.loc 1 784 3 view .LVU405
 1480 000c 1A69     		ldr	r2, [r3, #16]
 1481 000e 8021     		movs	r1, #128
 1482 0010 0A43     		orrs	r2, r1
 1483 0012 1A61     		str	r2, [r3, #16]
 785:Drivers/STM32L0xx_HAL_Driver/Src/stm32l0xx_hal_rcc_ex.c **** 
 786:Drivers/STM32L0xx_HAL_Driver/Src/stm32l0xx_hal_rcc_ex.c ****   /* Enable IT on EXTI Line 19 */
 787:Drivers/STM32L0xx_HAL_Driver/Src/stm32l0xx_hal_rcc_ex.c ****   __HAL_RCC_LSECSS_EXTI_ENABLE_IT();
 1484              		.loc 1 787 3 view .LVU406
 1485 0014 054B     		ldr	r3, .L131+4
 1486 0016 1968     		ldr	r1, [r3]
 1487 0018 8022     		movs	r2, #128
 1488 001a 1203     		lsls	r2, r2, #12
 1489 001c 1143     		orrs	r1, r2
 1490 001e 1960     		str	r1, [r3]
 788:Drivers/STM32L0xx_HAL_Driver/Src/stm32l0xx_hal_rcc_ex.c ****   __HAL_RCC_LSECSS_EXTI_ENABLE_RISING_EDGE();
 1491              		.loc 1 788 3 view .LVU407
 1492 0020 9968     		ldr	r1, [r3, #8]
 1493 0022 0A43     		orrs	r2, r1
 1494 0024 9A60     		str	r2, [r3, #8]
 789:Drivers/STM32L0xx_HAL_Driver/Src/stm32l0xx_hal_rcc_ex.c **** }
 1495              		.loc 1 789 1 is_stmt 0 view .LVU408
 1496              		@ sp needed
ARM GAS  /tmp/cc6QWq81.s 			page 43


 1497 0026 7047     		bx	lr
 1498              	.L132:
 1499              		.align	2
 1500              	.L131:
 1501 0028 00100240 		.word	1073876992
 1502 002c 00040140 		.word	1073808384
 1503              		.cfi_endproc
 1504              	.LFE52:
 1506              		.section	.text.HAL_RCCEx_LSECSS_Callback,"ax",%progbits
 1507              		.align	1
 1508              		.weak	HAL_RCCEx_LSECSS_Callback
 1509              		.syntax unified
 1510              		.code	16
 1511              		.thumb_func
 1513              	HAL_RCCEx_LSECSS_Callback:
 1514              	.LFB54:
 790:Drivers/STM32L0xx_HAL_Driver/Src/stm32l0xx_hal_rcc_ex.c **** 
 791:Drivers/STM32L0xx_HAL_Driver/Src/stm32l0xx_hal_rcc_ex.c **** /**
 792:Drivers/STM32L0xx_HAL_Driver/Src/stm32l0xx_hal_rcc_ex.c ****   * @brief Handle the RCC LSE Clock Security System interrupt request.
 793:Drivers/STM32L0xx_HAL_Driver/Src/stm32l0xx_hal_rcc_ex.c ****   * @retval None
 794:Drivers/STM32L0xx_HAL_Driver/Src/stm32l0xx_hal_rcc_ex.c ****   */
 795:Drivers/STM32L0xx_HAL_Driver/Src/stm32l0xx_hal_rcc_ex.c **** void HAL_RCCEx_LSECSS_IRQHandler(void)
 796:Drivers/STM32L0xx_HAL_Driver/Src/stm32l0xx_hal_rcc_ex.c **** {
 797:Drivers/STM32L0xx_HAL_Driver/Src/stm32l0xx_hal_rcc_ex.c ****   /* Check RCC LSE CSSF flag  */
 798:Drivers/STM32L0xx_HAL_Driver/Src/stm32l0xx_hal_rcc_ex.c ****   if(__HAL_RCC_GET_IT(RCC_IT_LSECSS))
 799:Drivers/STM32L0xx_HAL_Driver/Src/stm32l0xx_hal_rcc_ex.c ****   {
 800:Drivers/STM32L0xx_HAL_Driver/Src/stm32l0xx_hal_rcc_ex.c ****     /* RCC LSE Clock Security System interrupt user callback */
 801:Drivers/STM32L0xx_HAL_Driver/Src/stm32l0xx_hal_rcc_ex.c ****     HAL_RCCEx_LSECSS_Callback();
 802:Drivers/STM32L0xx_HAL_Driver/Src/stm32l0xx_hal_rcc_ex.c **** 
 803:Drivers/STM32L0xx_HAL_Driver/Src/stm32l0xx_hal_rcc_ex.c ****     /* Clear RCC LSE CSS pending bit */
 804:Drivers/STM32L0xx_HAL_Driver/Src/stm32l0xx_hal_rcc_ex.c ****     __HAL_RCC_CLEAR_IT(RCC_IT_LSECSS);
 805:Drivers/STM32L0xx_HAL_Driver/Src/stm32l0xx_hal_rcc_ex.c ****   }
 806:Drivers/STM32L0xx_HAL_Driver/Src/stm32l0xx_hal_rcc_ex.c **** }
 807:Drivers/STM32L0xx_HAL_Driver/Src/stm32l0xx_hal_rcc_ex.c **** 
 808:Drivers/STM32L0xx_HAL_Driver/Src/stm32l0xx_hal_rcc_ex.c **** /**
 809:Drivers/STM32L0xx_HAL_Driver/Src/stm32l0xx_hal_rcc_ex.c ****   * @brief  RCCEx LSE Clock Security System interrupt callback.
 810:Drivers/STM32L0xx_HAL_Driver/Src/stm32l0xx_hal_rcc_ex.c ****   * @retval none
 811:Drivers/STM32L0xx_HAL_Driver/Src/stm32l0xx_hal_rcc_ex.c ****   */
 812:Drivers/STM32L0xx_HAL_Driver/Src/stm32l0xx_hal_rcc_ex.c **** __weak void HAL_RCCEx_LSECSS_Callback(void)
 813:Drivers/STM32L0xx_HAL_Driver/Src/stm32l0xx_hal_rcc_ex.c **** {
 1515              		.loc 1 813 1 is_stmt 1 view -0
 1516              		.cfi_startproc
 1517              		@ args = 0, pretend = 0, frame = 0
 1518              		@ frame_needed = 0, uses_anonymous_args = 0
 1519              		@ link register save eliminated.
 814:Drivers/STM32L0xx_HAL_Driver/Src/stm32l0xx_hal_rcc_ex.c ****   /* NOTE : This function should not be modified, when the callback is needed,
 815:Drivers/STM32L0xx_HAL_Driver/Src/stm32l0xx_hal_rcc_ex.c ****             the @ref HAL_RCCEx_LSECSS_Callback should be implemented in the user file
 816:Drivers/STM32L0xx_HAL_Driver/Src/stm32l0xx_hal_rcc_ex.c ****    */
 817:Drivers/STM32L0xx_HAL_Driver/Src/stm32l0xx_hal_rcc_ex.c **** }
 1520              		.loc 1 817 1 view .LVU410
 1521              		@ sp needed
 1522 0000 7047     		bx	lr
 1523              		.cfi_endproc
 1524              	.LFE54:
 1526              		.section	.text.HAL_RCCEx_LSECSS_IRQHandler,"ax",%progbits
 1527              		.align	1
 1528              		.global	HAL_RCCEx_LSECSS_IRQHandler
ARM GAS  /tmp/cc6QWq81.s 			page 44


 1529              		.syntax unified
 1530              		.code	16
 1531              		.thumb_func
 1533              	HAL_RCCEx_LSECSS_IRQHandler:
 1534              	.LFB53:
 796:Drivers/STM32L0xx_HAL_Driver/Src/stm32l0xx_hal_rcc_ex.c ****   /* Check RCC LSE CSSF flag  */
 1535              		.loc 1 796 1 view -0
 1536              		.cfi_startproc
 1537              		@ args = 0, pretend = 0, frame = 0
 1538              		@ frame_needed = 0, uses_anonymous_args = 0
 1539 0000 10B5     		push	{r4, lr}
 1540              	.LCFI2:
 1541              		.cfi_def_cfa_offset 8
 1542              		.cfi_offset 4, -8
 1543              		.cfi_offset 14, -4
 798:Drivers/STM32L0xx_HAL_Driver/Src/stm32l0xx_hal_rcc_ex.c ****   {
 1544              		.loc 1 798 3 view .LVU412
 798:Drivers/STM32L0xx_HAL_Driver/Src/stm32l0xx_hal_rcc_ex.c ****   {
 1545              		.loc 1 798 6 is_stmt 0 view .LVU413
 1546 0002 054B     		ldr	r3, .L138
 1547 0004 5B69     		ldr	r3, [r3, #20]
 798:Drivers/STM32L0xx_HAL_Driver/Src/stm32l0xx_hal_rcc_ex.c ****   {
 1548              		.loc 1 798 5 view .LVU414
 1549 0006 1B06     		lsls	r3, r3, #24
 1550 0008 00D4     		bmi	.L137
 1551              	.L134:
 806:Drivers/STM32L0xx_HAL_Driver/Src/stm32l0xx_hal_rcc_ex.c **** 
 1552              		.loc 1 806 1 view .LVU415
 1553              		@ sp needed
 1554 000a 10BD     		pop	{r4, pc}
 1555              	.L137:
 801:Drivers/STM32L0xx_HAL_Driver/Src/stm32l0xx_hal_rcc_ex.c **** 
 1556              		.loc 1 801 5 is_stmt 1 view .LVU416
 1557 000c FFF7FEFF 		bl	HAL_RCCEx_LSECSS_Callback
 1558              	.LVL88:
 804:Drivers/STM32L0xx_HAL_Driver/Src/stm32l0xx_hal_rcc_ex.c ****   }
 1559              		.loc 1 804 5 view .LVU417
 1560 0010 014B     		ldr	r3, .L138
 1561 0012 8022     		movs	r2, #128
 1562 0014 9A61     		str	r2, [r3, #24]
 806:Drivers/STM32L0xx_HAL_Driver/Src/stm32l0xx_hal_rcc_ex.c **** 
 1563              		.loc 1 806 1 is_stmt 0 view .LVU418
 1564 0016 F8E7     		b	.L134
 1565              	.L139:
 1566              		.align	2
 1567              	.L138:
 1568 0018 00100240 		.word	1073876992
 1569              		.cfi_endproc
 1570              	.LFE53:
 1572              		.section	.text.HAL_RCCEx_EnableHSI48_VREFINT,"ax",%progbits
 1573              		.align	1
 1574              		.global	HAL_RCCEx_EnableHSI48_VREFINT
 1575              		.syntax unified
 1576              		.code	16
 1577              		.thumb_func
 1579              	HAL_RCCEx_EnableHSI48_VREFINT:
 1580              	.LFB55:
ARM GAS  /tmp/cc6QWq81.s 			page 45


 818:Drivers/STM32L0xx_HAL_Driver/Src/stm32l0xx_hal_rcc_ex.c **** 
 819:Drivers/STM32L0xx_HAL_Driver/Src/stm32l0xx_hal_rcc_ex.c **** #if defined(SYSCFG_CFGR3_ENREF_HSI48)
 820:Drivers/STM32L0xx_HAL_Driver/Src/stm32l0xx_hal_rcc_ex.c **** /**
 821:Drivers/STM32L0xx_HAL_Driver/Src/stm32l0xx_hal_rcc_ex.c ****   * @brief Enables Vrefint for the HSI48.
 822:Drivers/STM32L0xx_HAL_Driver/Src/stm32l0xx_hal_rcc_ex.c ****   * @note  This is functional only if the LOCK is not set
 823:Drivers/STM32L0xx_HAL_Driver/Src/stm32l0xx_hal_rcc_ex.c ****   * @retval None
 824:Drivers/STM32L0xx_HAL_Driver/Src/stm32l0xx_hal_rcc_ex.c ****   */
 825:Drivers/STM32L0xx_HAL_Driver/Src/stm32l0xx_hal_rcc_ex.c **** void HAL_RCCEx_EnableHSI48_VREFINT(void)
 826:Drivers/STM32L0xx_HAL_Driver/Src/stm32l0xx_hal_rcc_ex.c **** {
 1581              		.loc 1 826 1 is_stmt 1 view -0
 1582              		.cfi_startproc
 1583              		@ args = 0, pretend = 0, frame = 0
 1584              		@ frame_needed = 0, uses_anonymous_args = 0
 1585              		@ link register save eliminated.
 827:Drivers/STM32L0xx_HAL_Driver/Src/stm32l0xx_hal_rcc_ex.c ****   /* Enable the Buffer for the ADC by setting SYSCFG_CFGR3_ENREF_HSI48 bit in SYSCFG_CFGR3 register
 828:Drivers/STM32L0xx_HAL_Driver/Src/stm32l0xx_hal_rcc_ex.c ****   SET_BIT (SYSCFG->CFGR3, SYSCFG_CFGR3_ENREF_HSI48);
 1586              		.loc 1 828 3 view .LVU420
 1587 0000 034A     		ldr	r2, .L141
 1588 0002 116A     		ldr	r1, [r2, #32]
 1589 0004 8023     		movs	r3, #128
 1590 0006 9B01     		lsls	r3, r3, #6
 1591 0008 0B43     		orrs	r3, r1
 1592 000a 1362     		str	r3, [r2, #32]
 829:Drivers/STM32L0xx_HAL_Driver/Src/stm32l0xx_hal_rcc_ex.c **** }
 1593              		.loc 1 829 1 is_stmt 0 view .LVU421
 1594              		@ sp needed
 1595 000c 7047     		bx	lr
 1596              	.L142:
 1597 000e C046     		.align	2
 1598              	.L141:
 1599 0010 00000140 		.word	1073807360
 1600              		.cfi_endproc
 1601              	.LFE55:
 1603              		.section	.text.HAL_RCCEx_DisableHSI48_VREFINT,"ax",%progbits
 1604              		.align	1
 1605              		.global	HAL_RCCEx_DisableHSI48_VREFINT
 1606              		.syntax unified
 1607              		.code	16
 1608              		.thumb_func
 1610              	HAL_RCCEx_DisableHSI48_VREFINT:
 1611              	.LFB56:
 830:Drivers/STM32L0xx_HAL_Driver/Src/stm32l0xx_hal_rcc_ex.c **** 
 831:Drivers/STM32L0xx_HAL_Driver/Src/stm32l0xx_hal_rcc_ex.c **** /**
 832:Drivers/STM32L0xx_HAL_Driver/Src/stm32l0xx_hal_rcc_ex.c ****   * @brief Disables the Vrefint for the HSI48.
 833:Drivers/STM32L0xx_HAL_Driver/Src/stm32l0xx_hal_rcc_ex.c ****   * @note  This is functional only if the LOCK is not set
 834:Drivers/STM32L0xx_HAL_Driver/Src/stm32l0xx_hal_rcc_ex.c ****   * @retval None
 835:Drivers/STM32L0xx_HAL_Driver/Src/stm32l0xx_hal_rcc_ex.c ****   */
 836:Drivers/STM32L0xx_HAL_Driver/Src/stm32l0xx_hal_rcc_ex.c **** void HAL_RCCEx_DisableHSI48_VREFINT(void)
 837:Drivers/STM32L0xx_HAL_Driver/Src/stm32l0xx_hal_rcc_ex.c **** {
 1612              		.loc 1 837 1 is_stmt 1 view -0
 1613              		.cfi_startproc
 1614              		@ args = 0, pretend = 0, frame = 0
 1615              		@ frame_needed = 0, uses_anonymous_args = 0
 1616              		@ link register save eliminated.
 838:Drivers/STM32L0xx_HAL_Driver/Src/stm32l0xx_hal_rcc_ex.c ****   /* Disable the Vrefint by resetting SYSCFG_CFGR3_ENREF_HSI48 bit in SYSCFG_CFGR3 register */
 839:Drivers/STM32L0xx_HAL_Driver/Src/stm32l0xx_hal_rcc_ex.c ****   CLEAR_BIT(SYSCFG->CFGR3, SYSCFG_CFGR3_ENREF_HSI48);
 1617              		.loc 1 839 3 view .LVU423
ARM GAS  /tmp/cc6QWq81.s 			page 46


 1618 0000 024A     		ldr	r2, .L144
 1619 0002 136A     		ldr	r3, [r2, #32]
 1620 0004 0249     		ldr	r1, .L144+4
 1621 0006 0B40     		ands	r3, r1
 1622 0008 1362     		str	r3, [r2, #32]
 840:Drivers/STM32L0xx_HAL_Driver/Src/stm32l0xx_hal_rcc_ex.c **** }
 1623              		.loc 1 840 1 is_stmt 0 view .LVU424
 1624              		@ sp needed
 1625 000a 7047     		bx	lr
 1626              	.L145:
 1627              		.align	2
 1628              	.L144:
 1629 000c 00000140 		.word	1073807360
 1630 0010 FFDFFFFF 		.word	-8193
 1631              		.cfi_endproc
 1632              	.LFE56:
 1634              		.section	.text.HAL_RCCEx_CRSConfig,"ax",%progbits
 1635              		.align	1
 1636              		.global	HAL_RCCEx_CRSConfig
 1637              		.syntax unified
 1638              		.code	16
 1639              		.thumb_func
 1641              	HAL_RCCEx_CRSConfig:
 1642              	.LVL89:
 1643              	.LFB57:
 841:Drivers/STM32L0xx_HAL_Driver/Src/stm32l0xx_hal_rcc_ex.c **** 
 842:Drivers/STM32L0xx_HAL_Driver/Src/stm32l0xx_hal_rcc_ex.c **** #endif /* SYSCFG_CFGR3_ENREF_HSI48 */
 843:Drivers/STM32L0xx_HAL_Driver/Src/stm32l0xx_hal_rcc_ex.c **** 
 844:Drivers/STM32L0xx_HAL_Driver/Src/stm32l0xx_hal_rcc_ex.c **** /**
 845:Drivers/STM32L0xx_HAL_Driver/Src/stm32l0xx_hal_rcc_ex.c ****   * @}
 846:Drivers/STM32L0xx_HAL_Driver/Src/stm32l0xx_hal_rcc_ex.c ****   */
 847:Drivers/STM32L0xx_HAL_Driver/Src/stm32l0xx_hal_rcc_ex.c **** 
 848:Drivers/STM32L0xx_HAL_Driver/Src/stm32l0xx_hal_rcc_ex.c **** #if defined (CRS)
 849:Drivers/STM32L0xx_HAL_Driver/Src/stm32l0xx_hal_rcc_ex.c **** 
 850:Drivers/STM32L0xx_HAL_Driver/Src/stm32l0xx_hal_rcc_ex.c **** /** @defgroup RCCEx_Exported_Functions_Group3 Extended Clock Recovery System Control functions
 851:Drivers/STM32L0xx_HAL_Driver/Src/stm32l0xx_hal_rcc_ex.c ****  *  @brief  Extended Clock Recovery System Control functions
 852:Drivers/STM32L0xx_HAL_Driver/Src/stm32l0xx_hal_rcc_ex.c ****  *
 853:Drivers/STM32L0xx_HAL_Driver/Src/stm32l0xx_hal_rcc_ex.c **** @verbatim
 854:Drivers/STM32L0xx_HAL_Driver/Src/stm32l0xx_hal_rcc_ex.c ****  ===============================================================================
 855:Drivers/STM32L0xx_HAL_Driver/Src/stm32l0xx_hal_rcc_ex.c ****                 ##### Extended Clock Recovery System Control functions  #####
 856:Drivers/STM32L0xx_HAL_Driver/Src/stm32l0xx_hal_rcc_ex.c ****  ===============================================================================
 857:Drivers/STM32L0xx_HAL_Driver/Src/stm32l0xx_hal_rcc_ex.c ****     [..]
 858:Drivers/STM32L0xx_HAL_Driver/Src/stm32l0xx_hal_rcc_ex.c ****       For devices with Clock Recovery System feature (CRS), RCC Extension HAL driver can be used as
 859:Drivers/STM32L0xx_HAL_Driver/Src/stm32l0xx_hal_rcc_ex.c **** 
 860:Drivers/STM32L0xx_HAL_Driver/Src/stm32l0xx_hal_rcc_ex.c ****       (#) In System clock config, HSI48 needs to be enabled
 861:Drivers/STM32L0xx_HAL_Driver/Src/stm32l0xx_hal_rcc_ex.c **** 
 862:Drivers/STM32L0xx_HAL_Driver/Src/stm32l0xx_hal_rcc_ex.c ****       (#) Enable CRS clock in IP MSP init which will use CRS functions
 863:Drivers/STM32L0xx_HAL_Driver/Src/stm32l0xx_hal_rcc_ex.c **** 
 864:Drivers/STM32L0xx_HAL_Driver/Src/stm32l0xx_hal_rcc_ex.c ****       (#) Call CRS functions as follows:
 865:Drivers/STM32L0xx_HAL_Driver/Src/stm32l0xx_hal_rcc_ex.c ****           (##) Prepare synchronization configuration necessary for HSI48 calibration
 866:Drivers/STM32L0xx_HAL_Driver/Src/stm32l0xx_hal_rcc_ex.c ****               (+++) Default values can be set for frequency Error Measurement (reload and error lim
 867:Drivers/STM32L0xx_HAL_Driver/Src/stm32l0xx_hal_rcc_ex.c ****                         and also HSI48 oscillator smooth trimming.
 868:Drivers/STM32L0xx_HAL_Driver/Src/stm32l0xx_hal_rcc_ex.c ****               (+++) Macro __HAL_RCC_CRS_RELOADVALUE_CALCULATE can be also used to calculate
 869:Drivers/STM32L0xx_HAL_Driver/Src/stm32l0xx_hal_rcc_ex.c ****                         directly reload value with target and synchronization frequencies values
 870:Drivers/STM32L0xx_HAL_Driver/Src/stm32l0xx_hal_rcc_ex.c ****           (##) Call function HAL_RCCEx_CRSConfig which
 871:Drivers/STM32L0xx_HAL_Driver/Src/stm32l0xx_hal_rcc_ex.c ****               (+++) Reset CRS registers to their default values.
 872:Drivers/STM32L0xx_HAL_Driver/Src/stm32l0xx_hal_rcc_ex.c ****               (+++) Configure CRS registers with synchronization configuration
ARM GAS  /tmp/cc6QWq81.s 			page 47


 873:Drivers/STM32L0xx_HAL_Driver/Src/stm32l0xx_hal_rcc_ex.c ****               (+++) Enable automatic calibration and frequency error counter feature
 874:Drivers/STM32L0xx_HAL_Driver/Src/stm32l0xx_hal_rcc_ex.c ****            Note: When using USB LPM (Link Power Management) and the device is in Sleep mode, the
 875:Drivers/STM32L0xx_HAL_Driver/Src/stm32l0xx_hal_rcc_ex.c ****            periodic USB SOF will not be generated by the host. No SYNC signal will therefore be
 876:Drivers/STM32L0xx_HAL_Driver/Src/stm32l0xx_hal_rcc_ex.c ****            provided to the CRS to calibrate the HSI48 on the run. To guarantee the required clock
 877:Drivers/STM32L0xx_HAL_Driver/Src/stm32l0xx_hal_rcc_ex.c ****            precision after waking up from Sleep mode, the LSE or reference clock on the GPIOs
 878:Drivers/STM32L0xx_HAL_Driver/Src/stm32l0xx_hal_rcc_ex.c ****            should be used as SYNC signal.
 879:Drivers/STM32L0xx_HAL_Driver/Src/stm32l0xx_hal_rcc_ex.c **** 
 880:Drivers/STM32L0xx_HAL_Driver/Src/stm32l0xx_hal_rcc_ex.c ****           (##) A polling function is provided to wait for complete synchronization
 881:Drivers/STM32L0xx_HAL_Driver/Src/stm32l0xx_hal_rcc_ex.c ****               (+++) Call function HAL_RCCEx_CRSWaitSynchronization()
 882:Drivers/STM32L0xx_HAL_Driver/Src/stm32l0xx_hal_rcc_ex.c ****               (+++) According to CRS status, user can decide to adjust again the calibration or con
 883:Drivers/STM32L0xx_HAL_Driver/Src/stm32l0xx_hal_rcc_ex.c ****                         application if synchronization is OK
 884:Drivers/STM32L0xx_HAL_Driver/Src/stm32l0xx_hal_rcc_ex.c **** 
 885:Drivers/STM32L0xx_HAL_Driver/Src/stm32l0xx_hal_rcc_ex.c ****       (#) User can retrieve information related to synchronization in calling function
 886:Drivers/STM32L0xx_HAL_Driver/Src/stm32l0xx_hal_rcc_ex.c ****             HAL_RCCEx_CRSGetSynchronizationInfo()
 887:Drivers/STM32L0xx_HAL_Driver/Src/stm32l0xx_hal_rcc_ex.c **** 
 888:Drivers/STM32L0xx_HAL_Driver/Src/stm32l0xx_hal_rcc_ex.c ****       (#) Regarding synchronization status and synchronization information, user can try a new cali
 889:Drivers/STM32L0xx_HAL_Driver/Src/stm32l0xx_hal_rcc_ex.c ****            in changing synchronization configuration and call again HAL_RCCEx_CRSConfig.
 890:Drivers/STM32L0xx_HAL_Driver/Src/stm32l0xx_hal_rcc_ex.c ****            Note: When the SYNC event is detected during the downcounting phase (before reaching the
 891:Drivers/STM32L0xx_HAL_Driver/Src/stm32l0xx_hal_rcc_ex.c ****            it means that the actual frequency is lower than the target (and so, that the TRIM value
 892:Drivers/STM32L0xx_HAL_Driver/Src/stm32l0xx_hal_rcc_ex.c ****            incremented), while when it is detected during the upcounting phase it means that the ac
 893:Drivers/STM32L0xx_HAL_Driver/Src/stm32l0xx_hal_rcc_ex.c ****            is higher (and that the TRIM value should be decremented).
 894:Drivers/STM32L0xx_HAL_Driver/Src/stm32l0xx_hal_rcc_ex.c **** 
 895:Drivers/STM32L0xx_HAL_Driver/Src/stm32l0xx_hal_rcc_ex.c ****       (#) In interrupt mode, user can resort to the available macros (__HAL_RCC_CRS_XXX_IT). Interr
 896:Drivers/STM32L0xx_HAL_Driver/Src/stm32l0xx_hal_rcc_ex.c ****           through CRS Handler (RCC_IRQn/RCC_IRQHandler)
 897:Drivers/STM32L0xx_HAL_Driver/Src/stm32l0xx_hal_rcc_ex.c ****               (++) Call function HAL_RCCEx_CRSConfig()
 898:Drivers/STM32L0xx_HAL_Driver/Src/stm32l0xx_hal_rcc_ex.c ****               (++) Enable RCC_IRQn (thanks to NVIC functions)
 899:Drivers/STM32L0xx_HAL_Driver/Src/stm32l0xx_hal_rcc_ex.c ****               (++) Enable CRS interrupt (__HAL_RCC_CRS_ENABLE_IT)
 900:Drivers/STM32L0xx_HAL_Driver/Src/stm32l0xx_hal_rcc_ex.c ****               (++) Implement CRS status management in the following user callbacks called from
 901:Drivers/STM32L0xx_HAL_Driver/Src/stm32l0xx_hal_rcc_ex.c ****                    HAL_RCCEx_CRS_IRQHandler():
 902:Drivers/STM32L0xx_HAL_Driver/Src/stm32l0xx_hal_rcc_ex.c ****                    (+++) HAL_RCCEx_CRS_SyncOkCallback()
 903:Drivers/STM32L0xx_HAL_Driver/Src/stm32l0xx_hal_rcc_ex.c ****                    (+++) HAL_RCCEx_CRS_SyncWarnCallback()
 904:Drivers/STM32L0xx_HAL_Driver/Src/stm32l0xx_hal_rcc_ex.c ****                    (+++) HAL_RCCEx_CRS_ExpectedSyncCallback()
 905:Drivers/STM32L0xx_HAL_Driver/Src/stm32l0xx_hal_rcc_ex.c ****                    (+++) HAL_RCCEx_CRS_ErrorCallback()
 906:Drivers/STM32L0xx_HAL_Driver/Src/stm32l0xx_hal_rcc_ex.c **** 
 907:Drivers/STM32L0xx_HAL_Driver/Src/stm32l0xx_hal_rcc_ex.c ****       (#) To force a SYNC EVENT, user can use the function HAL_RCCEx_CRSSoftwareSynchronizationGene
 908:Drivers/STM32L0xx_HAL_Driver/Src/stm32l0xx_hal_rcc_ex.c ****           This function can be called before calling HAL_RCCEx_CRSConfig (for instance in Systick h
 909:Drivers/STM32L0xx_HAL_Driver/Src/stm32l0xx_hal_rcc_ex.c **** 
 910:Drivers/STM32L0xx_HAL_Driver/Src/stm32l0xx_hal_rcc_ex.c **** @endverbatim
 911:Drivers/STM32L0xx_HAL_Driver/Src/stm32l0xx_hal_rcc_ex.c ****  * @{
 912:Drivers/STM32L0xx_HAL_Driver/Src/stm32l0xx_hal_rcc_ex.c ****  */
 913:Drivers/STM32L0xx_HAL_Driver/Src/stm32l0xx_hal_rcc_ex.c **** 
 914:Drivers/STM32L0xx_HAL_Driver/Src/stm32l0xx_hal_rcc_ex.c **** /**
 915:Drivers/STM32L0xx_HAL_Driver/Src/stm32l0xx_hal_rcc_ex.c ****   * @brief  Start automatic synchronization for polling mode
 916:Drivers/STM32L0xx_HAL_Driver/Src/stm32l0xx_hal_rcc_ex.c ****   * @param  pInit Pointer on RCC_CRSInitTypeDef structure
 917:Drivers/STM32L0xx_HAL_Driver/Src/stm32l0xx_hal_rcc_ex.c ****   * @retval None
 918:Drivers/STM32L0xx_HAL_Driver/Src/stm32l0xx_hal_rcc_ex.c ****   */
 919:Drivers/STM32L0xx_HAL_Driver/Src/stm32l0xx_hal_rcc_ex.c **** void HAL_RCCEx_CRSConfig(RCC_CRSInitTypeDef *pInit)
 920:Drivers/STM32L0xx_HAL_Driver/Src/stm32l0xx_hal_rcc_ex.c **** {
 1644              		.loc 1 920 1 is_stmt 1 view -0
 1645              		.cfi_startproc
 1646              		@ args = 0, pretend = 0, frame = 0
 1647              		@ frame_needed = 0, uses_anonymous_args = 0
 1648              		@ link register save eliminated.
 921:Drivers/STM32L0xx_HAL_Driver/Src/stm32l0xx_hal_rcc_ex.c ****   uint32_t value;
 1649              		.loc 1 921 3 view .LVU426
 922:Drivers/STM32L0xx_HAL_Driver/Src/stm32l0xx_hal_rcc_ex.c **** 
 923:Drivers/STM32L0xx_HAL_Driver/Src/stm32l0xx_hal_rcc_ex.c ****   /* Check the parameters */
ARM GAS  /tmp/cc6QWq81.s 			page 48


 924:Drivers/STM32L0xx_HAL_Driver/Src/stm32l0xx_hal_rcc_ex.c ****   assert_param(IS_RCC_CRS_SYNC_DIV(pInit->Prescaler));
 1650              		.loc 1 924 3 view .LVU427
 925:Drivers/STM32L0xx_HAL_Driver/Src/stm32l0xx_hal_rcc_ex.c ****   assert_param(IS_RCC_CRS_SYNC_SOURCE(pInit->Source));
 1651              		.loc 1 925 3 view .LVU428
 926:Drivers/STM32L0xx_HAL_Driver/Src/stm32l0xx_hal_rcc_ex.c ****   assert_param(IS_RCC_CRS_SYNC_POLARITY(pInit->Polarity));
 1652              		.loc 1 926 3 view .LVU429
 927:Drivers/STM32L0xx_HAL_Driver/Src/stm32l0xx_hal_rcc_ex.c ****   assert_param(IS_RCC_CRS_RELOADVALUE(pInit->ReloadValue));
 1653              		.loc 1 927 3 view .LVU430
 928:Drivers/STM32L0xx_HAL_Driver/Src/stm32l0xx_hal_rcc_ex.c ****   assert_param(IS_RCC_CRS_ERRORLIMIT(pInit->ErrorLimitValue));
 1654              		.loc 1 928 3 view .LVU431
 929:Drivers/STM32L0xx_HAL_Driver/Src/stm32l0xx_hal_rcc_ex.c ****   assert_param(IS_RCC_CRS_HSI48CALIBRATION(pInit->HSI48CalibrationValue));
 1655              		.loc 1 929 3 view .LVU432
 930:Drivers/STM32L0xx_HAL_Driver/Src/stm32l0xx_hal_rcc_ex.c **** 
 931:Drivers/STM32L0xx_HAL_Driver/Src/stm32l0xx_hal_rcc_ex.c ****   /* CONFIGURATION */
 932:Drivers/STM32L0xx_HAL_Driver/Src/stm32l0xx_hal_rcc_ex.c **** 
 933:Drivers/STM32L0xx_HAL_Driver/Src/stm32l0xx_hal_rcc_ex.c ****   /* Before configuration, reset CRS registers to their default values*/
 934:Drivers/STM32L0xx_HAL_Driver/Src/stm32l0xx_hal_rcc_ex.c ****   __HAL_RCC_CRS_FORCE_RESET();
 1656              		.loc 1 934 3 view .LVU433
 1657 0000 104B     		ldr	r3, .L147
 1658 0002 996A     		ldr	r1, [r3, #40]
 1659 0004 8022     		movs	r2, #128
 1660 0006 1205     		lsls	r2, r2, #20
 1661 0008 0A43     		orrs	r2, r1
 1662 000a 9A62     		str	r2, [r3, #40]
 935:Drivers/STM32L0xx_HAL_Driver/Src/stm32l0xx_hal_rcc_ex.c ****   __HAL_RCC_CRS_RELEASE_RESET();
 1663              		.loc 1 935 3 view .LVU434
 1664 000c 9A6A     		ldr	r2, [r3, #40]
 1665 000e 0E49     		ldr	r1, .L147+4
 1666 0010 0A40     		ands	r2, r1
 1667 0012 9A62     		str	r2, [r3, #40]
 936:Drivers/STM32L0xx_HAL_Driver/Src/stm32l0xx_hal_rcc_ex.c **** 
 937:Drivers/STM32L0xx_HAL_Driver/Src/stm32l0xx_hal_rcc_ex.c ****   /* Set the SYNCDIV[2:0] bits according to Prescaler value */
 938:Drivers/STM32L0xx_HAL_Driver/Src/stm32l0xx_hal_rcc_ex.c ****   /* Set the SYNCSRC[1:0] bits according to Source value */
 939:Drivers/STM32L0xx_HAL_Driver/Src/stm32l0xx_hal_rcc_ex.c ****   /* Set the SYNCSPOL bit according to Polarity value */
 940:Drivers/STM32L0xx_HAL_Driver/Src/stm32l0xx_hal_rcc_ex.c ****   value = (pInit->Prescaler | pInit->Source | pInit->Polarity);
 1668              		.loc 1 940 3 view .LVU435
 1669              		.loc 1 940 17 is_stmt 0 view .LVU436
 1670 0014 0368     		ldr	r3, [r0]
 1671              		.loc 1 940 36 view .LVU437
 1672 0016 4268     		ldr	r2, [r0, #4]
 1673              		.loc 1 940 29 view .LVU438
 1674 0018 1343     		orrs	r3, r2
 1675              		.loc 1 940 52 view .LVU439
 1676 001a 8268     		ldr	r2, [r0, #8]
 1677              		.loc 1 940 9 view .LVU440
 1678 001c 1343     		orrs	r3, r2
 1679              	.LVL90:
 941:Drivers/STM32L0xx_HAL_Driver/Src/stm32l0xx_hal_rcc_ex.c ****   /* Set the RELOAD[15:0] bits according to ReloadValue value */
 942:Drivers/STM32L0xx_HAL_Driver/Src/stm32l0xx_hal_rcc_ex.c ****   value |= pInit->ReloadValue;
 1680              		.loc 1 942 3 is_stmt 1 view .LVU441
 1681              		.loc 1 942 17 is_stmt 0 view .LVU442
 1682 001e C268     		ldr	r2, [r0, #12]
 1683              		.loc 1 942 9 view .LVU443
 1684 0020 1343     		orrs	r3, r2
 1685              	.LVL91:
 943:Drivers/STM32L0xx_HAL_Driver/Src/stm32l0xx_hal_rcc_ex.c ****   /* Set the FELIM[7:0] bits according to ErrorLimitValue value */
 944:Drivers/STM32L0xx_HAL_Driver/Src/stm32l0xx_hal_rcc_ex.c ****   value |= (pInit->ErrorLimitValue << CRS_CFGR_FELIM_Pos);
ARM GAS  /tmp/cc6QWq81.s 			page 49


 1686              		.loc 1 944 3 is_stmt 1 view .LVU444
 1687              		.loc 1 944 18 is_stmt 0 view .LVU445
 1688 0022 0269     		ldr	r2, [r0, #16]
 1689              		.loc 1 944 36 view .LVU446
 1690 0024 1204     		lsls	r2, r2, #16
 1691              		.loc 1 944 9 view .LVU447
 1692 0026 1A43     		orrs	r2, r3
 1693              	.LVL92:
 945:Drivers/STM32L0xx_HAL_Driver/Src/stm32l0xx_hal_rcc_ex.c ****   WRITE_REG(CRS->CFGR, value);
 1694              		.loc 1 945 3 is_stmt 1 view .LVU448
 1695 0028 084B     		ldr	r3, .L147+8
 1696 002a 5A60     		str	r2, [r3, #4]
 946:Drivers/STM32L0xx_HAL_Driver/Src/stm32l0xx_hal_rcc_ex.c **** 
 947:Drivers/STM32L0xx_HAL_Driver/Src/stm32l0xx_hal_rcc_ex.c ****   /* Adjust HSI48 oscillator smooth trimming */
 948:Drivers/STM32L0xx_HAL_Driver/Src/stm32l0xx_hal_rcc_ex.c ****   /* Set the TRIM[5:0] bits according to RCC_CRS_HSI48CalibrationValue value */
 949:Drivers/STM32L0xx_HAL_Driver/Src/stm32l0xx_hal_rcc_ex.c ****   MODIFY_REG(CRS->CR, CRS_CR_TRIM, (pInit->HSI48CalibrationValue << CRS_CR_TRIM_Pos));
 1697              		.loc 1 949 3 view .LVU449
 1698 002c 1A68     		ldr	r2, [r3]
 1699              	.LVL93:
 1700              		.loc 1 949 3 is_stmt 0 view .LVU450
 1701 002e 0849     		ldr	r1, .L147+12
 1702 0030 0A40     		ands	r2, r1
 1703 0032 4169     		ldr	r1, [r0, #20]
 1704 0034 0902     		lsls	r1, r1, #8
 1705 0036 0A43     		orrs	r2, r1
 1706 0038 1A60     		str	r2, [r3]
 1707              	.LVL94:
 950:Drivers/STM32L0xx_HAL_Driver/Src/stm32l0xx_hal_rcc_ex.c **** 
 951:Drivers/STM32L0xx_HAL_Driver/Src/stm32l0xx_hal_rcc_ex.c ****   /* START AUTOMATIC SYNCHRONIZATION*/
 952:Drivers/STM32L0xx_HAL_Driver/Src/stm32l0xx_hal_rcc_ex.c **** 
 953:Drivers/STM32L0xx_HAL_Driver/Src/stm32l0xx_hal_rcc_ex.c ****   /* Enable Automatic trimming & Frequency error counter */
 954:Drivers/STM32L0xx_HAL_Driver/Src/stm32l0xx_hal_rcc_ex.c ****   SET_BIT(CRS->CR, CRS_CR_AUTOTRIMEN | CRS_CR_CEN);
 1708              		.loc 1 954 3 is_stmt 1 view .LVU451
 1709 003a 1A68     		ldr	r2, [r3]
 1710 003c 6021     		movs	r1, #96
 1711 003e 0A43     		orrs	r2, r1
 1712 0040 1A60     		str	r2, [r3]
 955:Drivers/STM32L0xx_HAL_Driver/Src/stm32l0xx_hal_rcc_ex.c **** }
 1713              		.loc 1 955 1 is_stmt 0 view .LVU452
 1714              		@ sp needed
 1715 0042 7047     		bx	lr
 1716              	.L148:
 1717              		.align	2
 1718              	.L147:
 1719 0044 00100240 		.word	1073876992
 1720 0048 FFFFFFF7 		.word	-134217729
 1721 004c 006C0040 		.word	1073769472
 1722 0050 FFC0FFFF 		.word	-16129
 1723              		.cfi_endproc
 1724              	.LFE57:
 1726              		.section	.text.HAL_RCCEx_CRSSoftwareSynchronizationGenerate,"ax",%progbits
 1727              		.align	1
 1728              		.global	HAL_RCCEx_CRSSoftwareSynchronizationGenerate
 1729              		.syntax unified
 1730              		.code	16
 1731              		.thumb_func
 1733              	HAL_RCCEx_CRSSoftwareSynchronizationGenerate:
ARM GAS  /tmp/cc6QWq81.s 			page 50


 1734              	.LFB58:
 956:Drivers/STM32L0xx_HAL_Driver/Src/stm32l0xx_hal_rcc_ex.c **** 
 957:Drivers/STM32L0xx_HAL_Driver/Src/stm32l0xx_hal_rcc_ex.c **** /**
 958:Drivers/STM32L0xx_HAL_Driver/Src/stm32l0xx_hal_rcc_ex.c ****   * @brief  Generate the software synchronization event
 959:Drivers/STM32L0xx_HAL_Driver/Src/stm32l0xx_hal_rcc_ex.c ****   * @retval None
 960:Drivers/STM32L0xx_HAL_Driver/Src/stm32l0xx_hal_rcc_ex.c ****   */
 961:Drivers/STM32L0xx_HAL_Driver/Src/stm32l0xx_hal_rcc_ex.c **** void HAL_RCCEx_CRSSoftwareSynchronizationGenerate(void)
 962:Drivers/STM32L0xx_HAL_Driver/Src/stm32l0xx_hal_rcc_ex.c **** {
 1735              		.loc 1 962 1 is_stmt 1 view -0
 1736              		.cfi_startproc
 1737              		@ args = 0, pretend = 0, frame = 0
 1738              		@ frame_needed = 0, uses_anonymous_args = 0
 1739              		@ link register save eliminated.
 963:Drivers/STM32L0xx_HAL_Driver/Src/stm32l0xx_hal_rcc_ex.c ****   SET_BIT(CRS->CR, CRS_CR_SWSYNC);
 1740              		.loc 1 963 3 view .LVU454
 1741 0000 024A     		ldr	r2, .L150
 1742 0002 1368     		ldr	r3, [r2]
 1743 0004 8021     		movs	r1, #128
 1744 0006 0B43     		orrs	r3, r1
 1745 0008 1360     		str	r3, [r2]
 964:Drivers/STM32L0xx_HAL_Driver/Src/stm32l0xx_hal_rcc_ex.c **** }
 1746              		.loc 1 964 1 is_stmt 0 view .LVU455
 1747              		@ sp needed
 1748 000a 7047     		bx	lr
 1749              	.L151:
 1750              		.align	2
 1751              	.L150:
 1752 000c 006C0040 		.word	1073769472
 1753              		.cfi_endproc
 1754              	.LFE58:
 1756              		.section	.text.HAL_RCCEx_CRSGetSynchronizationInfo,"ax",%progbits
 1757              		.align	1
 1758              		.global	HAL_RCCEx_CRSGetSynchronizationInfo
 1759              		.syntax unified
 1760              		.code	16
 1761              		.thumb_func
 1763              	HAL_RCCEx_CRSGetSynchronizationInfo:
 1764              	.LVL95:
 1765              	.LFB59:
 965:Drivers/STM32L0xx_HAL_Driver/Src/stm32l0xx_hal_rcc_ex.c **** 
 966:Drivers/STM32L0xx_HAL_Driver/Src/stm32l0xx_hal_rcc_ex.c **** /**
 967:Drivers/STM32L0xx_HAL_Driver/Src/stm32l0xx_hal_rcc_ex.c ****   * @brief  Return synchronization info
 968:Drivers/STM32L0xx_HAL_Driver/Src/stm32l0xx_hal_rcc_ex.c ****   * @param  pSynchroInfo Pointer on RCC_CRSSynchroInfoTypeDef structure
 969:Drivers/STM32L0xx_HAL_Driver/Src/stm32l0xx_hal_rcc_ex.c ****   * @retval None
 970:Drivers/STM32L0xx_HAL_Driver/Src/stm32l0xx_hal_rcc_ex.c ****   */
 971:Drivers/STM32L0xx_HAL_Driver/Src/stm32l0xx_hal_rcc_ex.c **** void HAL_RCCEx_CRSGetSynchronizationInfo(RCC_CRSSynchroInfoTypeDef *pSynchroInfo)
 972:Drivers/STM32L0xx_HAL_Driver/Src/stm32l0xx_hal_rcc_ex.c **** {
 1766              		.loc 1 972 1 is_stmt 1 view -0
 1767              		.cfi_startproc
 1768              		@ args = 0, pretend = 0, frame = 0
 1769              		@ frame_needed = 0, uses_anonymous_args = 0
 1770              		@ link register save eliminated.
 973:Drivers/STM32L0xx_HAL_Driver/Src/stm32l0xx_hal_rcc_ex.c ****   /* Check the parameter */
 974:Drivers/STM32L0xx_HAL_Driver/Src/stm32l0xx_hal_rcc_ex.c ****   assert_param(pSynchroInfo != (void *)NULL);
 1771              		.loc 1 974 3 view .LVU457
 975:Drivers/STM32L0xx_HAL_Driver/Src/stm32l0xx_hal_rcc_ex.c **** 
 976:Drivers/STM32L0xx_HAL_Driver/Src/stm32l0xx_hal_rcc_ex.c ****   /* Get the reload value */
ARM GAS  /tmp/cc6QWq81.s 			page 51


 977:Drivers/STM32L0xx_HAL_Driver/Src/stm32l0xx_hal_rcc_ex.c ****   pSynchroInfo->ReloadValue = (uint32_t)(READ_BIT(CRS->CFGR, CRS_CFGR_RELOAD));
 1772              		.loc 1 977 3 view .LVU458
 1773              		.loc 1 977 42 is_stmt 0 view .LVU459
 1774 0000 094A     		ldr	r2, .L153
 1775 0002 5368     		ldr	r3, [r2, #4]
 1776              		.loc 1 977 31 view .LVU460
 1777 0004 1B04     		lsls	r3, r3, #16
 1778 0006 1B0C     		lsrs	r3, r3, #16
 1779              		.loc 1 977 29 view .LVU461
 1780 0008 0360     		str	r3, [r0]
 978:Drivers/STM32L0xx_HAL_Driver/Src/stm32l0xx_hal_rcc_ex.c **** 
 979:Drivers/STM32L0xx_HAL_Driver/Src/stm32l0xx_hal_rcc_ex.c ****   /* Get HSI48 oscillator smooth trimming */
 980:Drivers/STM32L0xx_HAL_Driver/Src/stm32l0xx_hal_rcc_ex.c ****   pSynchroInfo->HSI48CalibrationValue = (uint32_t)(READ_BIT(CRS->CR, CRS_CR_TRIM) >> CRS_CR_TRIM_Po
 1781              		.loc 1 980 3 is_stmt 1 view .LVU462
 1782              		.loc 1 980 52 is_stmt 0 view .LVU463
 1783 000a 1168     		ldr	r1, [r2]
 1784              		.loc 1 980 41 view .LVU464
 1785 000c 090A     		lsrs	r1, r1, #8
 1786 000e 3F23     		movs	r3, #63
 1787 0010 0B40     		ands	r3, r1
 1788              		.loc 1 980 39 view .LVU465
 1789 0012 4360     		str	r3, [r0, #4]
 981:Drivers/STM32L0xx_HAL_Driver/Src/stm32l0xx_hal_rcc_ex.c **** 
 982:Drivers/STM32L0xx_HAL_Driver/Src/stm32l0xx_hal_rcc_ex.c ****   /* Get Frequency error capture */
 983:Drivers/STM32L0xx_HAL_Driver/Src/stm32l0xx_hal_rcc_ex.c ****   pSynchroInfo->FreqErrorCapture = (uint32_t)(READ_BIT(CRS->ISR, CRS_ISR_FECAP) >> CRS_ISR_FECAP_Po
 1790              		.loc 1 983 3 is_stmt 1 view .LVU466
 1791              		.loc 1 983 47 is_stmt 0 view .LVU467
 1792 0014 9368     		ldr	r3, [r2, #8]
 1793              		.loc 1 983 36 view .LVU468
 1794 0016 1B0C     		lsrs	r3, r3, #16
 1795              		.loc 1 983 34 view .LVU469
 1796 0018 8360     		str	r3, [r0, #8]
 984:Drivers/STM32L0xx_HAL_Driver/Src/stm32l0xx_hal_rcc_ex.c **** 
 985:Drivers/STM32L0xx_HAL_Driver/Src/stm32l0xx_hal_rcc_ex.c ****   /* Get Frequency error direction */
 986:Drivers/STM32L0xx_HAL_Driver/Src/stm32l0xx_hal_rcc_ex.c ****   pSynchroInfo->FreqErrorDirection = (uint32_t)(READ_BIT(CRS->ISR, CRS_ISR_FEDIR));
 1797              		.loc 1 986 3 is_stmt 1 view .LVU470
 1798              		.loc 1 986 49 is_stmt 0 view .LVU471
 1799 001a 9368     		ldr	r3, [r2, #8]
 1800              		.loc 1 986 38 view .LVU472
 1801 001c 8022     		movs	r2, #128
 1802 001e 1202     		lsls	r2, r2, #8
 1803 0020 1340     		ands	r3, r2
 1804              		.loc 1 986 36 view .LVU473
 1805 0022 C360     		str	r3, [r0, #12]
 987:Drivers/STM32L0xx_HAL_Driver/Src/stm32l0xx_hal_rcc_ex.c **** }
 1806              		.loc 1 987 1 view .LVU474
 1807              		@ sp needed
 1808 0024 7047     		bx	lr
 1809              	.L154:
 1810 0026 C046     		.align	2
 1811              	.L153:
 1812 0028 006C0040 		.word	1073769472
 1813              		.cfi_endproc
 1814              	.LFE59:
 1816              		.section	.text.HAL_RCCEx_CRSWaitSynchronization,"ax",%progbits
 1817              		.align	1
 1818              		.global	HAL_RCCEx_CRSWaitSynchronization
ARM GAS  /tmp/cc6QWq81.s 			page 52


 1819              		.syntax unified
 1820              		.code	16
 1821              		.thumb_func
 1823              	HAL_RCCEx_CRSWaitSynchronization:
 1824              	.LVL96:
 1825              	.LFB60:
 988:Drivers/STM32L0xx_HAL_Driver/Src/stm32l0xx_hal_rcc_ex.c **** 
 989:Drivers/STM32L0xx_HAL_Driver/Src/stm32l0xx_hal_rcc_ex.c **** /**
 990:Drivers/STM32L0xx_HAL_Driver/Src/stm32l0xx_hal_rcc_ex.c **** * @brief Wait for CRS Synchronization status.
 991:Drivers/STM32L0xx_HAL_Driver/Src/stm32l0xx_hal_rcc_ex.c **** * @param Timeout  Duration of the timeout
 992:Drivers/STM32L0xx_HAL_Driver/Src/stm32l0xx_hal_rcc_ex.c **** * @note  Timeout is based on the maximum time to receive a SYNC event based on synchronization
 993:Drivers/STM32L0xx_HAL_Driver/Src/stm32l0xx_hal_rcc_ex.c **** *        frequency.
 994:Drivers/STM32L0xx_HAL_Driver/Src/stm32l0xx_hal_rcc_ex.c **** * @note    If Timeout set to HAL_MAX_DELAY, HAL_TIMEOUT will be never returned.
 995:Drivers/STM32L0xx_HAL_Driver/Src/stm32l0xx_hal_rcc_ex.c **** * @retval Combination of Synchronization status
 996:Drivers/STM32L0xx_HAL_Driver/Src/stm32l0xx_hal_rcc_ex.c **** *          This parameter can be a combination of the following values:
 997:Drivers/STM32L0xx_HAL_Driver/Src/stm32l0xx_hal_rcc_ex.c **** *            @arg @ref RCC_CRS_TIMEOUT
 998:Drivers/STM32L0xx_HAL_Driver/Src/stm32l0xx_hal_rcc_ex.c **** *            @arg @ref RCC_CRS_SYNCOK
 999:Drivers/STM32L0xx_HAL_Driver/Src/stm32l0xx_hal_rcc_ex.c **** *            @arg @ref RCC_CRS_SYNCWARN
1000:Drivers/STM32L0xx_HAL_Driver/Src/stm32l0xx_hal_rcc_ex.c **** *            @arg @ref RCC_CRS_SYNCERR
1001:Drivers/STM32L0xx_HAL_Driver/Src/stm32l0xx_hal_rcc_ex.c **** *            @arg @ref RCC_CRS_SYNCMISS
1002:Drivers/STM32L0xx_HAL_Driver/Src/stm32l0xx_hal_rcc_ex.c **** *            @arg @ref RCC_CRS_TRIMOVF
1003:Drivers/STM32L0xx_HAL_Driver/Src/stm32l0xx_hal_rcc_ex.c **** */
1004:Drivers/STM32L0xx_HAL_Driver/Src/stm32l0xx_hal_rcc_ex.c **** uint32_t HAL_RCCEx_CRSWaitSynchronization(uint32_t Timeout)
1005:Drivers/STM32L0xx_HAL_Driver/Src/stm32l0xx_hal_rcc_ex.c **** {
 1826              		.loc 1 1005 1 is_stmt 1 view -0
 1827              		.cfi_startproc
 1828              		@ args = 0, pretend = 0, frame = 0
 1829              		@ frame_needed = 0, uses_anonymous_args = 0
 1830              		.loc 1 1005 1 is_stmt 0 view .LVU476
 1831 0000 70B5     		push	{r4, r5, r6, lr}
 1832              	.LCFI3:
 1833              		.cfi_def_cfa_offset 16
 1834              		.cfi_offset 4, -16
 1835              		.cfi_offset 5, -12
 1836              		.cfi_offset 6, -8
 1837              		.cfi_offset 14, -4
 1838 0002 0500     		movs	r5, r0
1006:Drivers/STM32L0xx_HAL_Driver/Src/stm32l0xx_hal_rcc_ex.c ****   uint32_t crsstatus = RCC_CRS_NONE;
 1839              		.loc 1 1006 3 is_stmt 1 view .LVU477
 1840              	.LVL97:
1007:Drivers/STM32L0xx_HAL_Driver/Src/stm32l0xx_hal_rcc_ex.c ****   uint32_t tickstart;
 1841              		.loc 1 1007 3 view .LVU478
1008:Drivers/STM32L0xx_HAL_Driver/Src/stm32l0xx_hal_rcc_ex.c **** 
1009:Drivers/STM32L0xx_HAL_Driver/Src/stm32l0xx_hal_rcc_ex.c ****   /* Get timeout */
1010:Drivers/STM32L0xx_HAL_Driver/Src/stm32l0xx_hal_rcc_ex.c ****   tickstart = HAL_GetTick();
 1842              		.loc 1 1010 3 view .LVU479
 1843              		.loc 1 1010 15 is_stmt 0 view .LVU480
 1844 0004 FFF7FEFF 		bl	HAL_GetTick
 1845              	.LVL98:
 1846              		.loc 1 1010 15 view .LVU481
 1847 0008 0600     		movs	r6, r0
 1848              	.LVL99:
1006:Drivers/STM32L0xx_HAL_Driver/Src/stm32l0xx_hal_rcc_ex.c ****   uint32_t tickstart;
 1849              		.loc 1 1006 12 view .LVU482
 1850 000a 0024     		movs	r4, #0
 1851 000c 0FE0     		b	.L163
 1852              	.LVL100:
ARM GAS  /tmp/cc6QWq81.s 			page 53


 1853              	.L174:
1011:Drivers/STM32L0xx_HAL_Driver/Src/stm32l0xx_hal_rcc_ex.c **** 
1012:Drivers/STM32L0xx_HAL_Driver/Src/stm32l0xx_hal_rcc_ex.c ****   /* Wait for CRS flag or timeout detection */
1013:Drivers/STM32L0xx_HAL_Driver/Src/stm32l0xx_hal_rcc_ex.c ****   do
1014:Drivers/STM32L0xx_HAL_Driver/Src/stm32l0xx_hal_rcc_ex.c ****   {
1015:Drivers/STM32L0xx_HAL_Driver/Src/stm32l0xx_hal_rcc_ex.c ****     if(Timeout != HAL_MAX_DELAY)
1016:Drivers/STM32L0xx_HAL_Driver/Src/stm32l0xx_hal_rcc_ex.c ****     {
1017:Drivers/STM32L0xx_HAL_Driver/Src/stm32l0xx_hal_rcc_ex.c ****       if(((HAL_GetTick() - tickstart) > Timeout) || (Timeout == 0U))
 1854              		.loc 1 1017 7 is_stmt 1 view .LVU483
 1855              		.loc 1 1017 12 is_stmt 0 view .LVU484
 1856 000e FFF7FEFF 		bl	HAL_GetTick
 1857              	.LVL101:
 1858              		.loc 1 1017 26 view .LVU485
 1859 0012 801B     		subs	r0, r0, r6
 1860              		.loc 1 1017 9 view .LVU486
 1861 0014 A842     		cmp	r0, r5
 1862 0016 03D8     		bhi	.L164
 1863              		.loc 1 1017 50 discriminator 1 view .LVU487
 1864 0018 002D     		cmp	r5, #0
 1865 001a 0AD1     		bne	.L156
1018:Drivers/STM32L0xx_HAL_Driver/Src/stm32l0xx_hal_rcc_ex.c ****       {
1019:Drivers/STM32L0xx_HAL_Driver/Src/stm32l0xx_hal_rcc_ex.c ****         crsstatus = RCC_CRS_TIMEOUT;
 1866              		.loc 1 1019 19 view .LVU488
 1867 001c 0124     		movs	r4, #1
 1868              	.LVL102:
 1869              		.loc 1 1019 19 view .LVU489
 1870 001e 08E0     		b	.L156
 1871              	.LVL103:
 1872              	.L164:
 1873              		.loc 1 1019 19 view .LVU490
 1874 0020 0124     		movs	r4, #1
 1875              	.LVL104:
 1876              		.loc 1 1019 19 view .LVU491
 1877 0022 06E0     		b	.L156
 1878              	.LVL105:
 1879              	.L175:
1020:Drivers/STM32L0xx_HAL_Driver/Src/stm32l0xx_hal_rcc_ex.c ****       }
1021:Drivers/STM32L0xx_HAL_Driver/Src/stm32l0xx_hal_rcc_ex.c ****     }
1022:Drivers/STM32L0xx_HAL_Driver/Src/stm32l0xx_hal_rcc_ex.c ****     /* Check CRS SYNCOK flag  */
1023:Drivers/STM32L0xx_HAL_Driver/Src/stm32l0xx_hal_rcc_ex.c ****     if(__HAL_RCC_CRS_GET_FLAG(RCC_CRS_FLAG_SYNCOK))
1024:Drivers/STM32L0xx_HAL_Driver/Src/stm32l0xx_hal_rcc_ex.c ****     {
1025:Drivers/STM32L0xx_HAL_Driver/Src/stm32l0xx_hal_rcc_ex.c ****       /* CRS SYNC event OK */
1026:Drivers/STM32L0xx_HAL_Driver/Src/stm32l0xx_hal_rcc_ex.c ****       crsstatus |= RCC_CRS_SYNCOK;
1027:Drivers/STM32L0xx_HAL_Driver/Src/stm32l0xx_hal_rcc_ex.c **** 
1028:Drivers/STM32L0xx_HAL_Driver/Src/stm32l0xx_hal_rcc_ex.c ****       /* Clear CRS SYNC event OK bit */
1029:Drivers/STM32L0xx_HAL_Driver/Src/stm32l0xx_hal_rcc_ex.c ****       __HAL_RCC_CRS_CLEAR_FLAG(RCC_CRS_FLAG_SYNCOK);
1030:Drivers/STM32L0xx_HAL_Driver/Src/stm32l0xx_hal_rcc_ex.c ****     }
1031:Drivers/STM32L0xx_HAL_Driver/Src/stm32l0xx_hal_rcc_ex.c **** 
1032:Drivers/STM32L0xx_HAL_Driver/Src/stm32l0xx_hal_rcc_ex.c ****     /* Check CRS SYNCWARN flag  */
1033:Drivers/STM32L0xx_HAL_Driver/Src/stm32l0xx_hal_rcc_ex.c ****     if(__HAL_RCC_CRS_GET_FLAG(RCC_CRS_FLAG_SYNCWARN))
1034:Drivers/STM32L0xx_HAL_Driver/Src/stm32l0xx_hal_rcc_ex.c ****     {
1035:Drivers/STM32L0xx_HAL_Driver/Src/stm32l0xx_hal_rcc_ex.c ****       /* CRS SYNC warning */
1036:Drivers/STM32L0xx_HAL_Driver/Src/stm32l0xx_hal_rcc_ex.c ****       crsstatus |= RCC_CRS_SYNCWARN;
1037:Drivers/STM32L0xx_HAL_Driver/Src/stm32l0xx_hal_rcc_ex.c **** 
1038:Drivers/STM32L0xx_HAL_Driver/Src/stm32l0xx_hal_rcc_ex.c ****       /* Clear CRS SYNCWARN bit */
1039:Drivers/STM32L0xx_HAL_Driver/Src/stm32l0xx_hal_rcc_ex.c ****       __HAL_RCC_CRS_CLEAR_FLAG(RCC_CRS_FLAG_SYNCWARN);
1040:Drivers/STM32L0xx_HAL_Driver/Src/stm32l0xx_hal_rcc_ex.c ****     }
ARM GAS  /tmp/cc6QWq81.s 			page 54


1041:Drivers/STM32L0xx_HAL_Driver/Src/stm32l0xx_hal_rcc_ex.c **** 
1042:Drivers/STM32L0xx_HAL_Driver/Src/stm32l0xx_hal_rcc_ex.c ****     /* Check CRS TRIM overflow flag  */
1043:Drivers/STM32L0xx_HAL_Driver/Src/stm32l0xx_hal_rcc_ex.c ****     if(__HAL_RCC_CRS_GET_FLAG(RCC_CRS_FLAG_TRIMOVF))
1044:Drivers/STM32L0xx_HAL_Driver/Src/stm32l0xx_hal_rcc_ex.c ****     {
1045:Drivers/STM32L0xx_HAL_Driver/Src/stm32l0xx_hal_rcc_ex.c ****       /* CRS SYNC Error */
1046:Drivers/STM32L0xx_HAL_Driver/Src/stm32l0xx_hal_rcc_ex.c ****       crsstatus |= RCC_CRS_TRIMOVF;
1047:Drivers/STM32L0xx_HAL_Driver/Src/stm32l0xx_hal_rcc_ex.c **** 
1048:Drivers/STM32L0xx_HAL_Driver/Src/stm32l0xx_hal_rcc_ex.c ****       /* Clear CRS Error bit */
1049:Drivers/STM32L0xx_HAL_Driver/Src/stm32l0xx_hal_rcc_ex.c ****       __HAL_RCC_CRS_CLEAR_FLAG(RCC_CRS_FLAG_TRIMOVF);
1050:Drivers/STM32L0xx_HAL_Driver/Src/stm32l0xx_hal_rcc_ex.c ****     }
1051:Drivers/STM32L0xx_HAL_Driver/Src/stm32l0xx_hal_rcc_ex.c **** 
1052:Drivers/STM32L0xx_HAL_Driver/Src/stm32l0xx_hal_rcc_ex.c ****     /* Check CRS Error flag  */
1053:Drivers/STM32L0xx_HAL_Driver/Src/stm32l0xx_hal_rcc_ex.c ****     if(__HAL_RCC_CRS_GET_FLAG(RCC_CRS_FLAG_SYNCERR))
1054:Drivers/STM32L0xx_HAL_Driver/Src/stm32l0xx_hal_rcc_ex.c ****     {
1055:Drivers/STM32L0xx_HAL_Driver/Src/stm32l0xx_hal_rcc_ex.c ****       /* CRS SYNC Error */
1056:Drivers/STM32L0xx_HAL_Driver/Src/stm32l0xx_hal_rcc_ex.c ****       crsstatus |= RCC_CRS_SYNCERR;
1057:Drivers/STM32L0xx_HAL_Driver/Src/stm32l0xx_hal_rcc_ex.c **** 
1058:Drivers/STM32L0xx_HAL_Driver/Src/stm32l0xx_hal_rcc_ex.c ****       /* Clear CRS Error bit */
1059:Drivers/STM32L0xx_HAL_Driver/Src/stm32l0xx_hal_rcc_ex.c ****       __HAL_RCC_CRS_CLEAR_FLAG(RCC_CRS_FLAG_SYNCERR);
1060:Drivers/STM32L0xx_HAL_Driver/Src/stm32l0xx_hal_rcc_ex.c ****     }
1061:Drivers/STM32L0xx_HAL_Driver/Src/stm32l0xx_hal_rcc_ex.c **** 
1062:Drivers/STM32L0xx_HAL_Driver/Src/stm32l0xx_hal_rcc_ex.c ****     /* Check CRS SYNC Missed flag  */
1063:Drivers/STM32L0xx_HAL_Driver/Src/stm32l0xx_hal_rcc_ex.c ****     if(__HAL_RCC_CRS_GET_FLAG(RCC_CRS_FLAG_SYNCMISS))
1064:Drivers/STM32L0xx_HAL_Driver/Src/stm32l0xx_hal_rcc_ex.c ****     {
1065:Drivers/STM32L0xx_HAL_Driver/Src/stm32l0xx_hal_rcc_ex.c ****       /* CRS SYNC Missed */
1066:Drivers/STM32L0xx_HAL_Driver/Src/stm32l0xx_hal_rcc_ex.c ****       crsstatus |= RCC_CRS_SYNCMISS;
1067:Drivers/STM32L0xx_HAL_Driver/Src/stm32l0xx_hal_rcc_ex.c **** 
1068:Drivers/STM32L0xx_HAL_Driver/Src/stm32l0xx_hal_rcc_ex.c ****       /* Clear CRS SYNC Missed bit */
1069:Drivers/STM32L0xx_HAL_Driver/Src/stm32l0xx_hal_rcc_ex.c ****       __HAL_RCC_CRS_CLEAR_FLAG(RCC_CRS_FLAG_SYNCMISS);
1070:Drivers/STM32L0xx_HAL_Driver/Src/stm32l0xx_hal_rcc_ex.c ****     }
1071:Drivers/STM32L0xx_HAL_Driver/Src/stm32l0xx_hal_rcc_ex.c **** 
1072:Drivers/STM32L0xx_HAL_Driver/Src/stm32l0xx_hal_rcc_ex.c ****     /* Check CRS Expected SYNC flag  */
1073:Drivers/STM32L0xx_HAL_Driver/Src/stm32l0xx_hal_rcc_ex.c ****     if(__HAL_RCC_CRS_GET_FLAG(RCC_CRS_FLAG_ESYNC))
1074:Drivers/STM32L0xx_HAL_Driver/Src/stm32l0xx_hal_rcc_ex.c ****     {
1075:Drivers/STM32L0xx_HAL_Driver/Src/stm32l0xx_hal_rcc_ex.c ****       /* frequency error counter reached a zero value */
1076:Drivers/STM32L0xx_HAL_Driver/Src/stm32l0xx_hal_rcc_ex.c ****       __HAL_RCC_CRS_CLEAR_FLAG(RCC_CRS_FLAG_ESYNC);
 1880              		.loc 1 1076 7 is_stmt 1 discriminator 2 view .LVU492
 1881              		.loc 1 1076 7 discriminator 2 view .LVU493
 1882              		.loc 1 1076 7 discriminator 2 view .LVU494
 1883 0024 1D4B     		ldr	r3, .L176
 1884 0026 0822     		movs	r2, #8
 1885 0028 DA60     		str	r2, [r3, #12]
 1886              	.L162:
 1887              		.loc 1 1076 7 discriminator 4 view .LVU495
1077:Drivers/STM32L0xx_HAL_Driver/Src/stm32l0xx_hal_rcc_ex.c ****     }
1078:Drivers/STM32L0xx_HAL_Driver/Src/stm32l0xx_hal_rcc_ex.c ****   } while(RCC_CRS_NONE == crsstatus);
 1888              		.loc 1 1078 24 discriminator 4 view .LVU496
 1889 002a 002C     		cmp	r4, #0
 1890 002c 33D1     		bne	.L173
 1891              	.LVL106:
 1892              	.L163:
1013:Drivers/STM32L0xx_HAL_Driver/Src/stm32l0xx_hal_rcc_ex.c ****   {
 1893              		.loc 1 1013 3 view .LVU497
1015:Drivers/STM32L0xx_HAL_Driver/Src/stm32l0xx_hal_rcc_ex.c ****     {
 1894              		.loc 1 1015 5 view .LVU498
1015:Drivers/STM32L0xx_HAL_Driver/Src/stm32l0xx_hal_rcc_ex.c ****     {
 1895              		.loc 1 1015 7 is_stmt 0 view .LVU499
ARM GAS  /tmp/cc6QWq81.s 			page 55


 1896 002e 6B1C     		adds	r3, r5, #1
 1897 0030 EDD1     		bne	.L174
 1898              	.LVL107:
 1899              	.L156:
1023:Drivers/STM32L0xx_HAL_Driver/Src/stm32l0xx_hal_rcc_ex.c ****     {
 1900              		.loc 1 1023 5 is_stmt 1 view .LVU500
1023:Drivers/STM32L0xx_HAL_Driver/Src/stm32l0xx_hal_rcc_ex.c ****     {
 1901              		.loc 1 1023 8 is_stmt 0 view .LVU501
 1902 0032 1A4B     		ldr	r3, .L176
 1903 0034 9B68     		ldr	r3, [r3, #8]
1023:Drivers/STM32L0xx_HAL_Driver/Src/stm32l0xx_hal_rcc_ex.c ****     {
 1904              		.loc 1 1023 7 view .LVU502
 1905 0036 DB07     		lsls	r3, r3, #31
 1906 0038 04D5     		bpl	.L157
1026:Drivers/STM32L0xx_HAL_Driver/Src/stm32l0xx_hal_rcc_ex.c **** 
 1907              		.loc 1 1026 7 is_stmt 1 view .LVU503
1026:Drivers/STM32L0xx_HAL_Driver/Src/stm32l0xx_hal_rcc_ex.c **** 
 1908              		.loc 1 1026 17 is_stmt 0 view .LVU504
 1909 003a 0223     		movs	r3, #2
 1910 003c 1C43     		orrs	r4, r3
 1911              	.LVL108:
1029:Drivers/STM32L0xx_HAL_Driver/Src/stm32l0xx_hal_rcc_ex.c ****     }
 1912              		.loc 1 1029 7 is_stmt 1 view .LVU505
1029:Drivers/STM32L0xx_HAL_Driver/Src/stm32l0xx_hal_rcc_ex.c ****     }
 1913              		.loc 1 1029 7 view .LVU506
1029:Drivers/STM32L0xx_HAL_Driver/Src/stm32l0xx_hal_rcc_ex.c ****     }
 1914              		.loc 1 1029 7 view .LVU507
 1915 003e 174B     		ldr	r3, .L176
 1916 0040 0122     		movs	r2, #1
 1917 0042 DA60     		str	r2, [r3, #12]
 1918              	.L157:
1029:Drivers/STM32L0xx_HAL_Driver/Src/stm32l0xx_hal_rcc_ex.c ****     }
 1919              		.loc 1 1029 7 discriminator 4 view .LVU508
1033:Drivers/STM32L0xx_HAL_Driver/Src/stm32l0xx_hal_rcc_ex.c ****     {
 1920              		.loc 1 1033 5 discriminator 4 view .LVU509
1033:Drivers/STM32L0xx_HAL_Driver/Src/stm32l0xx_hal_rcc_ex.c ****     {
 1921              		.loc 1 1033 8 is_stmt 0 discriminator 4 view .LVU510
 1922 0044 154B     		ldr	r3, .L176
 1923 0046 9B68     		ldr	r3, [r3, #8]
1033:Drivers/STM32L0xx_HAL_Driver/Src/stm32l0xx_hal_rcc_ex.c ****     {
 1924              		.loc 1 1033 7 discriminator 4 view .LVU511
 1925 0048 9B07     		lsls	r3, r3, #30
 1926 004a 04D5     		bpl	.L158
1036:Drivers/STM32L0xx_HAL_Driver/Src/stm32l0xx_hal_rcc_ex.c **** 
 1927              		.loc 1 1036 7 is_stmt 1 view .LVU512
1036:Drivers/STM32L0xx_HAL_Driver/Src/stm32l0xx_hal_rcc_ex.c **** 
 1928              		.loc 1 1036 17 is_stmt 0 view .LVU513
 1929 004c 0423     		movs	r3, #4
 1930 004e 1C43     		orrs	r4, r3
 1931              	.LVL109:
1039:Drivers/STM32L0xx_HAL_Driver/Src/stm32l0xx_hal_rcc_ex.c ****     }
 1932              		.loc 1 1039 7 is_stmt 1 view .LVU514
1039:Drivers/STM32L0xx_HAL_Driver/Src/stm32l0xx_hal_rcc_ex.c ****     }
 1933              		.loc 1 1039 7 view .LVU515
1039:Drivers/STM32L0xx_HAL_Driver/Src/stm32l0xx_hal_rcc_ex.c ****     }
 1934              		.loc 1 1039 7 view .LVU516
 1935 0050 124B     		ldr	r3, .L176
ARM GAS  /tmp/cc6QWq81.s 			page 56


 1936 0052 0222     		movs	r2, #2
 1937 0054 DA60     		str	r2, [r3, #12]
 1938              	.L158:
1039:Drivers/STM32L0xx_HAL_Driver/Src/stm32l0xx_hal_rcc_ex.c ****     }
 1939              		.loc 1 1039 7 discriminator 4 view .LVU517
1043:Drivers/STM32L0xx_HAL_Driver/Src/stm32l0xx_hal_rcc_ex.c ****     {
 1940              		.loc 1 1043 5 discriminator 4 view .LVU518
1043:Drivers/STM32L0xx_HAL_Driver/Src/stm32l0xx_hal_rcc_ex.c ****     {
 1941              		.loc 1 1043 8 is_stmt 0 discriminator 4 view .LVU519
 1942 0056 114B     		ldr	r3, .L176
 1943 0058 9B68     		ldr	r3, [r3, #8]
1043:Drivers/STM32L0xx_HAL_Driver/Src/stm32l0xx_hal_rcc_ex.c ****     {
 1944              		.loc 1 1043 7 discriminator 4 view .LVU520
 1945 005a 5B05     		lsls	r3, r3, #21
 1946 005c 04D5     		bpl	.L159
1046:Drivers/STM32L0xx_HAL_Driver/Src/stm32l0xx_hal_rcc_ex.c **** 
 1947              		.loc 1 1046 7 is_stmt 1 view .LVU521
1046:Drivers/STM32L0xx_HAL_Driver/Src/stm32l0xx_hal_rcc_ex.c **** 
 1948              		.loc 1 1046 17 is_stmt 0 view .LVU522
 1949 005e 2023     		movs	r3, #32
 1950 0060 1C43     		orrs	r4, r3
 1951              	.LVL110:
1049:Drivers/STM32L0xx_HAL_Driver/Src/stm32l0xx_hal_rcc_ex.c ****     }
 1952              		.loc 1 1049 7 is_stmt 1 view .LVU523
1049:Drivers/STM32L0xx_HAL_Driver/Src/stm32l0xx_hal_rcc_ex.c ****     }
 1953              		.loc 1 1049 7 view .LVU524
1049:Drivers/STM32L0xx_HAL_Driver/Src/stm32l0xx_hal_rcc_ex.c ****     }
 1954              		.loc 1 1049 7 view .LVU525
 1955 0062 0E4B     		ldr	r3, .L176
 1956 0064 0422     		movs	r2, #4
 1957 0066 DA60     		str	r2, [r3, #12]
 1958              	.L159:
1049:Drivers/STM32L0xx_HAL_Driver/Src/stm32l0xx_hal_rcc_ex.c ****     }
 1959              		.loc 1 1049 7 discriminator 4 view .LVU526
1053:Drivers/STM32L0xx_HAL_Driver/Src/stm32l0xx_hal_rcc_ex.c ****     {
 1960              		.loc 1 1053 5 discriminator 4 view .LVU527
1053:Drivers/STM32L0xx_HAL_Driver/Src/stm32l0xx_hal_rcc_ex.c ****     {
 1961              		.loc 1 1053 8 is_stmt 0 discriminator 4 view .LVU528
 1962 0068 0C4B     		ldr	r3, .L176
 1963 006a 9B68     		ldr	r3, [r3, #8]
1053:Drivers/STM32L0xx_HAL_Driver/Src/stm32l0xx_hal_rcc_ex.c ****     {
 1964              		.loc 1 1053 7 discriminator 4 view .LVU529
 1965 006c DB05     		lsls	r3, r3, #23
 1966 006e 04D5     		bpl	.L160
1056:Drivers/STM32L0xx_HAL_Driver/Src/stm32l0xx_hal_rcc_ex.c **** 
 1967              		.loc 1 1056 7 is_stmt 1 view .LVU530
1056:Drivers/STM32L0xx_HAL_Driver/Src/stm32l0xx_hal_rcc_ex.c **** 
 1968              		.loc 1 1056 17 is_stmt 0 view .LVU531
 1969 0070 0823     		movs	r3, #8
 1970 0072 1C43     		orrs	r4, r3
 1971              	.LVL111:
1059:Drivers/STM32L0xx_HAL_Driver/Src/stm32l0xx_hal_rcc_ex.c ****     }
 1972              		.loc 1 1059 7 is_stmt 1 view .LVU532
1059:Drivers/STM32L0xx_HAL_Driver/Src/stm32l0xx_hal_rcc_ex.c ****     }
 1973              		.loc 1 1059 7 view .LVU533
1059:Drivers/STM32L0xx_HAL_Driver/Src/stm32l0xx_hal_rcc_ex.c ****     }
 1974              		.loc 1 1059 7 view .LVU534
ARM GAS  /tmp/cc6QWq81.s 			page 57


 1975 0074 094B     		ldr	r3, .L176
 1976 0076 0422     		movs	r2, #4
 1977 0078 DA60     		str	r2, [r3, #12]
 1978              	.L160:
1059:Drivers/STM32L0xx_HAL_Driver/Src/stm32l0xx_hal_rcc_ex.c ****     }
 1979              		.loc 1 1059 7 discriminator 4 view .LVU535
1063:Drivers/STM32L0xx_HAL_Driver/Src/stm32l0xx_hal_rcc_ex.c ****     {
 1980              		.loc 1 1063 5 discriminator 4 view .LVU536
1063:Drivers/STM32L0xx_HAL_Driver/Src/stm32l0xx_hal_rcc_ex.c ****     {
 1981              		.loc 1 1063 8 is_stmt 0 discriminator 4 view .LVU537
 1982 007a 084B     		ldr	r3, .L176
 1983 007c 9B68     		ldr	r3, [r3, #8]
1063:Drivers/STM32L0xx_HAL_Driver/Src/stm32l0xx_hal_rcc_ex.c ****     {
 1984              		.loc 1 1063 7 discriminator 4 view .LVU538
 1985 007e 9B05     		lsls	r3, r3, #22
 1986 0080 04D5     		bpl	.L161
1066:Drivers/STM32L0xx_HAL_Driver/Src/stm32l0xx_hal_rcc_ex.c **** 
 1987              		.loc 1 1066 7 is_stmt 1 view .LVU539
1066:Drivers/STM32L0xx_HAL_Driver/Src/stm32l0xx_hal_rcc_ex.c **** 
 1988              		.loc 1 1066 17 is_stmt 0 view .LVU540
 1989 0082 1023     		movs	r3, #16
 1990 0084 1C43     		orrs	r4, r3
 1991              	.LVL112:
1069:Drivers/STM32L0xx_HAL_Driver/Src/stm32l0xx_hal_rcc_ex.c ****     }
 1992              		.loc 1 1069 7 is_stmt 1 view .LVU541
1069:Drivers/STM32L0xx_HAL_Driver/Src/stm32l0xx_hal_rcc_ex.c ****     }
 1993              		.loc 1 1069 7 view .LVU542
1069:Drivers/STM32L0xx_HAL_Driver/Src/stm32l0xx_hal_rcc_ex.c ****     }
 1994              		.loc 1 1069 7 view .LVU543
 1995 0086 054B     		ldr	r3, .L176
 1996 0088 0422     		movs	r2, #4
 1997 008a DA60     		str	r2, [r3, #12]
 1998              	.L161:
1069:Drivers/STM32L0xx_HAL_Driver/Src/stm32l0xx_hal_rcc_ex.c ****     }
 1999              		.loc 1 1069 7 discriminator 4 view .LVU544
1073:Drivers/STM32L0xx_HAL_Driver/Src/stm32l0xx_hal_rcc_ex.c ****     {
 2000              		.loc 1 1073 5 discriminator 4 view .LVU545
1073:Drivers/STM32L0xx_HAL_Driver/Src/stm32l0xx_hal_rcc_ex.c ****     {
 2001              		.loc 1 1073 8 is_stmt 0 discriminator 4 view .LVU546
 2002 008c 034B     		ldr	r3, .L176
 2003 008e 9B68     		ldr	r3, [r3, #8]
1073:Drivers/STM32L0xx_HAL_Driver/Src/stm32l0xx_hal_rcc_ex.c ****     {
 2004              		.loc 1 1073 7 discriminator 4 view .LVU547
 2005 0090 1B07     		lsls	r3, r3, #28
 2006 0092 CAD5     		bpl	.L162
1073:Drivers/STM32L0xx_HAL_Driver/Src/stm32l0xx_hal_rcc_ex.c ****     {
 2007              		.loc 1 1073 7 discriminator 4 view .LVU548
 2008 0094 C6E7     		b	.L175
 2009              	.L173:
1079:Drivers/STM32L0xx_HAL_Driver/Src/stm32l0xx_hal_rcc_ex.c **** 
1080:Drivers/STM32L0xx_HAL_Driver/Src/stm32l0xx_hal_rcc_ex.c ****   return crsstatus;
 2010              		.loc 1 1080 3 is_stmt 1 view .LVU549
1081:Drivers/STM32L0xx_HAL_Driver/Src/stm32l0xx_hal_rcc_ex.c **** }
 2011              		.loc 1 1081 1 is_stmt 0 view .LVU550
 2012 0096 2000     		movs	r0, r4
 2013              		@ sp needed
 2014              	.LVL113:
ARM GAS  /tmp/cc6QWq81.s 			page 58


 2015              	.LVL114:
 2016              	.LVL115:
 2017              		.loc 1 1081 1 view .LVU551
 2018 0098 70BD     		pop	{r4, r5, r6, pc}
 2019              	.L177:
 2020 009a C046     		.align	2
 2021              	.L176:
 2022 009c 006C0040 		.word	1073769472
 2023              		.cfi_endproc
 2024              	.LFE60:
 2026              		.section	.text.HAL_RCCEx_CRS_SyncOkCallback,"ax",%progbits
 2027              		.align	1
 2028              		.weak	HAL_RCCEx_CRS_SyncOkCallback
 2029              		.syntax unified
 2030              		.code	16
 2031              		.thumb_func
 2033              	HAL_RCCEx_CRS_SyncOkCallback:
 2034              	.LFB62:
1082:Drivers/STM32L0xx_HAL_Driver/Src/stm32l0xx_hal_rcc_ex.c **** 
1083:Drivers/STM32L0xx_HAL_Driver/Src/stm32l0xx_hal_rcc_ex.c **** /**
1084:Drivers/STM32L0xx_HAL_Driver/Src/stm32l0xx_hal_rcc_ex.c ****   * @brief Handle the Clock Recovery System interrupt request.
1085:Drivers/STM32L0xx_HAL_Driver/Src/stm32l0xx_hal_rcc_ex.c ****   * @retval None
1086:Drivers/STM32L0xx_HAL_Driver/Src/stm32l0xx_hal_rcc_ex.c ****   */
1087:Drivers/STM32L0xx_HAL_Driver/Src/stm32l0xx_hal_rcc_ex.c **** void HAL_RCCEx_CRS_IRQHandler(void)
1088:Drivers/STM32L0xx_HAL_Driver/Src/stm32l0xx_hal_rcc_ex.c **** {
1089:Drivers/STM32L0xx_HAL_Driver/Src/stm32l0xx_hal_rcc_ex.c ****   uint32_t crserror = RCC_CRS_NONE;
1090:Drivers/STM32L0xx_HAL_Driver/Src/stm32l0xx_hal_rcc_ex.c ****   /* Get current IT flags and IT sources values */
1091:Drivers/STM32L0xx_HAL_Driver/Src/stm32l0xx_hal_rcc_ex.c ****   uint32_t itflags = READ_REG(CRS->ISR);
1092:Drivers/STM32L0xx_HAL_Driver/Src/stm32l0xx_hal_rcc_ex.c ****   uint32_t itsources = READ_REG(CRS->CR);
1093:Drivers/STM32L0xx_HAL_Driver/Src/stm32l0xx_hal_rcc_ex.c **** 
1094:Drivers/STM32L0xx_HAL_Driver/Src/stm32l0xx_hal_rcc_ex.c ****   /* Check CRS SYNCOK flag  */
1095:Drivers/STM32L0xx_HAL_Driver/Src/stm32l0xx_hal_rcc_ex.c ****   if(((itflags & RCC_CRS_FLAG_SYNCOK) != 0U) && ((itsources & RCC_CRS_IT_SYNCOK) != 0U))
1096:Drivers/STM32L0xx_HAL_Driver/Src/stm32l0xx_hal_rcc_ex.c ****   {
1097:Drivers/STM32L0xx_HAL_Driver/Src/stm32l0xx_hal_rcc_ex.c ****     /* Clear CRS SYNC event OK flag */
1098:Drivers/STM32L0xx_HAL_Driver/Src/stm32l0xx_hal_rcc_ex.c ****     WRITE_REG(CRS->ICR, CRS_ICR_SYNCOKC);
1099:Drivers/STM32L0xx_HAL_Driver/Src/stm32l0xx_hal_rcc_ex.c **** 
1100:Drivers/STM32L0xx_HAL_Driver/Src/stm32l0xx_hal_rcc_ex.c ****     /* user callback */
1101:Drivers/STM32L0xx_HAL_Driver/Src/stm32l0xx_hal_rcc_ex.c ****     HAL_RCCEx_CRS_SyncOkCallback();
1102:Drivers/STM32L0xx_HAL_Driver/Src/stm32l0xx_hal_rcc_ex.c ****   }
1103:Drivers/STM32L0xx_HAL_Driver/Src/stm32l0xx_hal_rcc_ex.c ****   /* Check CRS SYNCWARN flag  */
1104:Drivers/STM32L0xx_HAL_Driver/Src/stm32l0xx_hal_rcc_ex.c ****   else if(((itflags & RCC_CRS_FLAG_SYNCWARN) != 0U) && ((itsources & RCC_CRS_IT_SYNCWARN) != 0U))
1105:Drivers/STM32L0xx_HAL_Driver/Src/stm32l0xx_hal_rcc_ex.c ****   {
1106:Drivers/STM32L0xx_HAL_Driver/Src/stm32l0xx_hal_rcc_ex.c ****     /* Clear CRS SYNCWARN flag */
1107:Drivers/STM32L0xx_HAL_Driver/Src/stm32l0xx_hal_rcc_ex.c ****     WRITE_REG(CRS->ICR, CRS_ICR_SYNCWARNC);
1108:Drivers/STM32L0xx_HAL_Driver/Src/stm32l0xx_hal_rcc_ex.c **** 
1109:Drivers/STM32L0xx_HAL_Driver/Src/stm32l0xx_hal_rcc_ex.c ****     /* user callback */
1110:Drivers/STM32L0xx_HAL_Driver/Src/stm32l0xx_hal_rcc_ex.c ****     HAL_RCCEx_CRS_SyncWarnCallback();
1111:Drivers/STM32L0xx_HAL_Driver/Src/stm32l0xx_hal_rcc_ex.c ****   }
1112:Drivers/STM32L0xx_HAL_Driver/Src/stm32l0xx_hal_rcc_ex.c ****   /* Check CRS Expected SYNC flag  */
1113:Drivers/STM32L0xx_HAL_Driver/Src/stm32l0xx_hal_rcc_ex.c ****   else if(((itflags & RCC_CRS_FLAG_ESYNC) != 0U) && ((itsources & RCC_CRS_IT_ESYNC) != 0U))
1114:Drivers/STM32L0xx_HAL_Driver/Src/stm32l0xx_hal_rcc_ex.c ****   {
1115:Drivers/STM32L0xx_HAL_Driver/Src/stm32l0xx_hal_rcc_ex.c ****     /* frequency error counter reached a zero value */
1116:Drivers/STM32L0xx_HAL_Driver/Src/stm32l0xx_hal_rcc_ex.c ****     WRITE_REG(CRS->ICR, CRS_ICR_ESYNCC);
1117:Drivers/STM32L0xx_HAL_Driver/Src/stm32l0xx_hal_rcc_ex.c **** 
1118:Drivers/STM32L0xx_HAL_Driver/Src/stm32l0xx_hal_rcc_ex.c ****     /* user callback */
1119:Drivers/STM32L0xx_HAL_Driver/Src/stm32l0xx_hal_rcc_ex.c ****     HAL_RCCEx_CRS_ExpectedSyncCallback();
1120:Drivers/STM32L0xx_HAL_Driver/Src/stm32l0xx_hal_rcc_ex.c ****   }
ARM GAS  /tmp/cc6QWq81.s 			page 59


1121:Drivers/STM32L0xx_HAL_Driver/Src/stm32l0xx_hal_rcc_ex.c ****   /* Check CRS Error flags  */
1122:Drivers/STM32L0xx_HAL_Driver/Src/stm32l0xx_hal_rcc_ex.c ****   else
1123:Drivers/STM32L0xx_HAL_Driver/Src/stm32l0xx_hal_rcc_ex.c ****   {
1124:Drivers/STM32L0xx_HAL_Driver/Src/stm32l0xx_hal_rcc_ex.c ****     if(((itflags & RCC_CRS_FLAG_ERR) != 0U) && ((itsources & RCC_CRS_IT_ERR) != 0U))
1125:Drivers/STM32L0xx_HAL_Driver/Src/stm32l0xx_hal_rcc_ex.c ****     {
1126:Drivers/STM32L0xx_HAL_Driver/Src/stm32l0xx_hal_rcc_ex.c ****       if((itflags & RCC_CRS_FLAG_SYNCERR) != 0U)
1127:Drivers/STM32L0xx_HAL_Driver/Src/stm32l0xx_hal_rcc_ex.c ****       {
1128:Drivers/STM32L0xx_HAL_Driver/Src/stm32l0xx_hal_rcc_ex.c ****         crserror |= RCC_CRS_SYNCERR;
1129:Drivers/STM32L0xx_HAL_Driver/Src/stm32l0xx_hal_rcc_ex.c ****       }
1130:Drivers/STM32L0xx_HAL_Driver/Src/stm32l0xx_hal_rcc_ex.c ****       if((itflags & RCC_CRS_FLAG_SYNCMISS) != 0U)
1131:Drivers/STM32L0xx_HAL_Driver/Src/stm32l0xx_hal_rcc_ex.c ****       {
1132:Drivers/STM32L0xx_HAL_Driver/Src/stm32l0xx_hal_rcc_ex.c ****         crserror |= RCC_CRS_SYNCMISS;
1133:Drivers/STM32L0xx_HAL_Driver/Src/stm32l0xx_hal_rcc_ex.c ****       }
1134:Drivers/STM32L0xx_HAL_Driver/Src/stm32l0xx_hal_rcc_ex.c ****       if((itflags & RCC_CRS_FLAG_TRIMOVF) != 0U)
1135:Drivers/STM32L0xx_HAL_Driver/Src/stm32l0xx_hal_rcc_ex.c ****       {
1136:Drivers/STM32L0xx_HAL_Driver/Src/stm32l0xx_hal_rcc_ex.c ****         crserror |= RCC_CRS_TRIMOVF;
1137:Drivers/STM32L0xx_HAL_Driver/Src/stm32l0xx_hal_rcc_ex.c ****       }
1138:Drivers/STM32L0xx_HAL_Driver/Src/stm32l0xx_hal_rcc_ex.c **** 
1139:Drivers/STM32L0xx_HAL_Driver/Src/stm32l0xx_hal_rcc_ex.c ****       /* Clear CRS Error flags */
1140:Drivers/STM32L0xx_HAL_Driver/Src/stm32l0xx_hal_rcc_ex.c ****       WRITE_REG(CRS->ICR, CRS_ICR_ERRC);
1141:Drivers/STM32L0xx_HAL_Driver/Src/stm32l0xx_hal_rcc_ex.c **** 
1142:Drivers/STM32L0xx_HAL_Driver/Src/stm32l0xx_hal_rcc_ex.c ****       /* user error callback */
1143:Drivers/STM32L0xx_HAL_Driver/Src/stm32l0xx_hal_rcc_ex.c ****       HAL_RCCEx_CRS_ErrorCallback(crserror);
1144:Drivers/STM32L0xx_HAL_Driver/Src/stm32l0xx_hal_rcc_ex.c ****     }
1145:Drivers/STM32L0xx_HAL_Driver/Src/stm32l0xx_hal_rcc_ex.c ****   }
1146:Drivers/STM32L0xx_HAL_Driver/Src/stm32l0xx_hal_rcc_ex.c **** }
1147:Drivers/STM32L0xx_HAL_Driver/Src/stm32l0xx_hal_rcc_ex.c **** 
1148:Drivers/STM32L0xx_HAL_Driver/Src/stm32l0xx_hal_rcc_ex.c **** /**
1149:Drivers/STM32L0xx_HAL_Driver/Src/stm32l0xx_hal_rcc_ex.c ****   * @brief  RCCEx Clock Recovery System SYNCOK interrupt callback.
1150:Drivers/STM32L0xx_HAL_Driver/Src/stm32l0xx_hal_rcc_ex.c ****   * @retval none
1151:Drivers/STM32L0xx_HAL_Driver/Src/stm32l0xx_hal_rcc_ex.c ****   */
1152:Drivers/STM32L0xx_HAL_Driver/Src/stm32l0xx_hal_rcc_ex.c **** __weak void HAL_RCCEx_CRS_SyncOkCallback(void)
1153:Drivers/STM32L0xx_HAL_Driver/Src/stm32l0xx_hal_rcc_ex.c **** {
 2035              		.loc 1 1153 1 is_stmt 1 view -0
 2036              		.cfi_startproc
 2037              		@ args = 0, pretend = 0, frame = 0
 2038              		@ frame_needed = 0, uses_anonymous_args = 0
 2039              		@ link register save eliminated.
1154:Drivers/STM32L0xx_HAL_Driver/Src/stm32l0xx_hal_rcc_ex.c ****   /* NOTE : This function should not be modified, when the callback is needed,
1155:Drivers/STM32L0xx_HAL_Driver/Src/stm32l0xx_hal_rcc_ex.c ****             the @ref HAL_RCCEx_CRS_SyncOkCallback should be implemented in the user file
1156:Drivers/STM32L0xx_HAL_Driver/Src/stm32l0xx_hal_rcc_ex.c ****    */
1157:Drivers/STM32L0xx_HAL_Driver/Src/stm32l0xx_hal_rcc_ex.c **** }
 2040              		.loc 1 1157 1 view .LVU553
 2041              		@ sp needed
 2042 0000 7047     		bx	lr
 2043              		.cfi_endproc
 2044              	.LFE62:
 2046              		.section	.text.HAL_RCCEx_CRS_SyncWarnCallback,"ax",%progbits
 2047              		.align	1
 2048              		.weak	HAL_RCCEx_CRS_SyncWarnCallback
 2049              		.syntax unified
 2050              		.code	16
 2051              		.thumb_func
 2053              	HAL_RCCEx_CRS_SyncWarnCallback:
 2054              	.LFB63:
1158:Drivers/STM32L0xx_HAL_Driver/Src/stm32l0xx_hal_rcc_ex.c **** 
1159:Drivers/STM32L0xx_HAL_Driver/Src/stm32l0xx_hal_rcc_ex.c **** /**
ARM GAS  /tmp/cc6QWq81.s 			page 60


1160:Drivers/STM32L0xx_HAL_Driver/Src/stm32l0xx_hal_rcc_ex.c ****   * @brief  RCCEx Clock Recovery System SYNCWARN interrupt callback.
1161:Drivers/STM32L0xx_HAL_Driver/Src/stm32l0xx_hal_rcc_ex.c ****   * @retval none
1162:Drivers/STM32L0xx_HAL_Driver/Src/stm32l0xx_hal_rcc_ex.c ****   */
1163:Drivers/STM32L0xx_HAL_Driver/Src/stm32l0xx_hal_rcc_ex.c **** __weak void HAL_RCCEx_CRS_SyncWarnCallback(void)
1164:Drivers/STM32L0xx_HAL_Driver/Src/stm32l0xx_hal_rcc_ex.c **** {
 2055              		.loc 1 1164 1 view -0
 2056              		.cfi_startproc
 2057              		@ args = 0, pretend = 0, frame = 0
 2058              		@ frame_needed = 0, uses_anonymous_args = 0
 2059              		@ link register save eliminated.
1165:Drivers/STM32L0xx_HAL_Driver/Src/stm32l0xx_hal_rcc_ex.c ****   /* NOTE : This function should not be modified, when the callback is needed,
1166:Drivers/STM32L0xx_HAL_Driver/Src/stm32l0xx_hal_rcc_ex.c ****             the @ref HAL_RCCEx_CRS_SyncWarnCallback should be implemented in the user file
1167:Drivers/STM32L0xx_HAL_Driver/Src/stm32l0xx_hal_rcc_ex.c ****    */
1168:Drivers/STM32L0xx_HAL_Driver/Src/stm32l0xx_hal_rcc_ex.c **** }
 2060              		.loc 1 1168 1 view .LVU555
 2061              		@ sp needed
 2062 0000 7047     		bx	lr
 2063              		.cfi_endproc
 2064              	.LFE63:
 2066              		.section	.text.HAL_RCCEx_CRS_ExpectedSyncCallback,"ax",%progbits
 2067              		.align	1
 2068              		.weak	HAL_RCCEx_CRS_ExpectedSyncCallback
 2069              		.syntax unified
 2070              		.code	16
 2071              		.thumb_func
 2073              	HAL_RCCEx_CRS_ExpectedSyncCallback:
 2074              	.LFB64:
1169:Drivers/STM32L0xx_HAL_Driver/Src/stm32l0xx_hal_rcc_ex.c **** 
1170:Drivers/STM32L0xx_HAL_Driver/Src/stm32l0xx_hal_rcc_ex.c **** /**
1171:Drivers/STM32L0xx_HAL_Driver/Src/stm32l0xx_hal_rcc_ex.c ****   * @brief  RCCEx Clock Recovery System Expected SYNC interrupt callback.
1172:Drivers/STM32L0xx_HAL_Driver/Src/stm32l0xx_hal_rcc_ex.c ****   * @retval none
1173:Drivers/STM32L0xx_HAL_Driver/Src/stm32l0xx_hal_rcc_ex.c ****   */
1174:Drivers/STM32L0xx_HAL_Driver/Src/stm32l0xx_hal_rcc_ex.c **** __weak void HAL_RCCEx_CRS_ExpectedSyncCallback(void)
1175:Drivers/STM32L0xx_HAL_Driver/Src/stm32l0xx_hal_rcc_ex.c **** {
 2075              		.loc 1 1175 1 view -0
 2076              		.cfi_startproc
 2077              		@ args = 0, pretend = 0, frame = 0
 2078              		@ frame_needed = 0, uses_anonymous_args = 0
 2079              		@ link register save eliminated.
1176:Drivers/STM32L0xx_HAL_Driver/Src/stm32l0xx_hal_rcc_ex.c ****   /* NOTE : This function should not be modified, when the callback is needed,
1177:Drivers/STM32L0xx_HAL_Driver/Src/stm32l0xx_hal_rcc_ex.c ****             the @ref HAL_RCCEx_CRS_ExpectedSyncCallback should be implemented in the user file
1178:Drivers/STM32L0xx_HAL_Driver/Src/stm32l0xx_hal_rcc_ex.c ****    */
1179:Drivers/STM32L0xx_HAL_Driver/Src/stm32l0xx_hal_rcc_ex.c **** }
 2080              		.loc 1 1179 1 view .LVU557
 2081              		@ sp needed
 2082 0000 7047     		bx	lr
 2083              		.cfi_endproc
 2084              	.LFE64:
 2086              		.section	.text.HAL_RCCEx_CRS_ErrorCallback,"ax",%progbits
 2087              		.align	1
 2088              		.weak	HAL_RCCEx_CRS_ErrorCallback
 2089              		.syntax unified
 2090              		.code	16
 2091              		.thumb_func
 2093              	HAL_RCCEx_CRS_ErrorCallback:
 2094              	.LVL116:
 2095              	.LFB65:
ARM GAS  /tmp/cc6QWq81.s 			page 61


1180:Drivers/STM32L0xx_HAL_Driver/Src/stm32l0xx_hal_rcc_ex.c **** 
1181:Drivers/STM32L0xx_HAL_Driver/Src/stm32l0xx_hal_rcc_ex.c **** /**
1182:Drivers/STM32L0xx_HAL_Driver/Src/stm32l0xx_hal_rcc_ex.c ****   * @brief  RCCEx Clock Recovery System Error interrupt callback.
1183:Drivers/STM32L0xx_HAL_Driver/Src/stm32l0xx_hal_rcc_ex.c ****   * @param  Error Combination of Error status.
1184:Drivers/STM32L0xx_HAL_Driver/Src/stm32l0xx_hal_rcc_ex.c ****   *         This parameter can be a combination of the following values:
1185:Drivers/STM32L0xx_HAL_Driver/Src/stm32l0xx_hal_rcc_ex.c ****   *           @arg @ref RCC_CRS_SYNCERR
1186:Drivers/STM32L0xx_HAL_Driver/Src/stm32l0xx_hal_rcc_ex.c ****   *           @arg @ref RCC_CRS_SYNCMISS
1187:Drivers/STM32L0xx_HAL_Driver/Src/stm32l0xx_hal_rcc_ex.c ****   *           @arg @ref RCC_CRS_TRIMOVF
1188:Drivers/STM32L0xx_HAL_Driver/Src/stm32l0xx_hal_rcc_ex.c ****   * @retval none
1189:Drivers/STM32L0xx_HAL_Driver/Src/stm32l0xx_hal_rcc_ex.c ****   */
1190:Drivers/STM32L0xx_HAL_Driver/Src/stm32l0xx_hal_rcc_ex.c **** __weak void HAL_RCCEx_CRS_ErrorCallback(uint32_t Error)
1191:Drivers/STM32L0xx_HAL_Driver/Src/stm32l0xx_hal_rcc_ex.c **** {
 2096              		.loc 1 1191 1 view -0
 2097              		.cfi_startproc
 2098              		@ args = 0, pretend = 0, frame = 0
 2099              		@ frame_needed = 0, uses_anonymous_args = 0
 2100              		@ link register save eliminated.
1192:Drivers/STM32L0xx_HAL_Driver/Src/stm32l0xx_hal_rcc_ex.c ****   /* Prevent unused argument(s) compilation warning */
1193:Drivers/STM32L0xx_HAL_Driver/Src/stm32l0xx_hal_rcc_ex.c ****   UNUSED(Error);
 2101              		.loc 1 1193 3 view .LVU559
1194:Drivers/STM32L0xx_HAL_Driver/Src/stm32l0xx_hal_rcc_ex.c **** 
1195:Drivers/STM32L0xx_HAL_Driver/Src/stm32l0xx_hal_rcc_ex.c ****   /* NOTE : This function should not be modified, when the callback is needed,
1196:Drivers/STM32L0xx_HAL_Driver/Src/stm32l0xx_hal_rcc_ex.c ****             the @ref HAL_RCCEx_CRS_ErrorCallback should be implemented in the user file
1197:Drivers/STM32L0xx_HAL_Driver/Src/stm32l0xx_hal_rcc_ex.c ****    */
1198:Drivers/STM32L0xx_HAL_Driver/Src/stm32l0xx_hal_rcc_ex.c **** }
 2102              		.loc 1 1198 1 is_stmt 0 view .LVU560
 2103              		@ sp needed
 2104 0000 7047     		bx	lr
 2105              		.cfi_endproc
 2106              	.LFE65:
 2108              		.section	.text.HAL_RCCEx_CRS_IRQHandler,"ax",%progbits
 2109              		.align	1
 2110              		.global	HAL_RCCEx_CRS_IRQHandler
 2111              		.syntax unified
 2112              		.code	16
 2113              		.thumb_func
 2115              	HAL_RCCEx_CRS_IRQHandler:
 2116              	.LFB61:
1088:Drivers/STM32L0xx_HAL_Driver/Src/stm32l0xx_hal_rcc_ex.c ****   uint32_t crserror = RCC_CRS_NONE;
 2117              		.loc 1 1088 1 is_stmt 1 view -0
 2118              		.cfi_startproc
 2119              		@ args = 0, pretend = 0, frame = 0
 2120              		@ frame_needed = 0, uses_anonymous_args = 0
 2121 0000 10B5     		push	{r4, lr}
 2122              	.LCFI4:
 2123              		.cfi_def_cfa_offset 8
 2124              		.cfi_offset 4, -8
 2125              		.cfi_offset 14, -4
1089:Drivers/STM32L0xx_HAL_Driver/Src/stm32l0xx_hal_rcc_ex.c ****   /* Get current IT flags and IT sources values */
 2126              		.loc 1 1089 3 view .LVU562
 2127              	.LVL117:
1091:Drivers/STM32L0xx_HAL_Driver/Src/stm32l0xx_hal_rcc_ex.c ****   uint32_t itsources = READ_REG(CRS->CR);
 2128              		.loc 1 1091 3 view .LVU563
1091:Drivers/STM32L0xx_HAL_Driver/Src/stm32l0xx_hal_rcc_ex.c ****   uint32_t itsources = READ_REG(CRS->CR);
 2129              		.loc 1 1091 12 is_stmt 0 view .LVU564
 2130 0002 1D4A     		ldr	r2, .L204
 2131 0004 9368     		ldr	r3, [r2, #8]
ARM GAS  /tmp/cc6QWq81.s 			page 62


 2132              	.LVL118:
1092:Drivers/STM32L0xx_HAL_Driver/Src/stm32l0xx_hal_rcc_ex.c **** 
 2133              		.loc 1 1092 3 is_stmt 1 view .LVU565
1092:Drivers/STM32L0xx_HAL_Driver/Src/stm32l0xx_hal_rcc_ex.c **** 
 2134              		.loc 1 1092 12 is_stmt 0 view .LVU566
 2135 0006 1268     		ldr	r2, [r2]
 2136              	.LVL119:
1095:Drivers/STM32L0xx_HAL_Driver/Src/stm32l0xx_hal_rcc_ex.c ****   {
 2137              		.loc 1 1095 3 is_stmt 1 view .LVU567
1095:Drivers/STM32L0xx_HAL_Driver/Src/stm32l0xx_hal_rcc_ex.c ****   {
 2138              		.loc 1 1095 5 is_stmt 0 view .LVU568
 2139 0008 D907     		lsls	r1, r3, #31
 2140 000a 01D5     		bpl	.L183
1095:Drivers/STM32L0xx_HAL_Driver/Src/stm32l0xx_hal_rcc_ex.c ****   {
 2141              		.loc 1 1095 46 discriminator 1 view .LVU569
 2142 000c D107     		lsls	r1, r2, #31
 2143 000e 20D4     		bmi	.L201
 2144              	.L183:
1104:Drivers/STM32L0xx_HAL_Driver/Src/stm32l0xx_hal_rcc_ex.c ****   {
 2145              		.loc 1 1104 8 is_stmt 1 view .LVU570
1104:Drivers/STM32L0xx_HAL_Driver/Src/stm32l0xx_hal_rcc_ex.c ****   {
 2146              		.loc 1 1104 10 is_stmt 0 view .LVU571
 2147 0010 9907     		lsls	r1, r3, #30
 2148 0012 01D5     		bpl	.L185
1104:Drivers/STM32L0xx_HAL_Driver/Src/stm32l0xx_hal_rcc_ex.c ****   {
 2149              		.loc 1 1104 53 discriminator 1 view .LVU572
 2150 0014 9107     		lsls	r1, r2, #30
 2151 0016 22D4     		bmi	.L202
 2152              	.L185:
1113:Drivers/STM32L0xx_HAL_Driver/Src/stm32l0xx_hal_rcc_ex.c ****   {
 2153              		.loc 1 1113 8 is_stmt 1 view .LVU573
1113:Drivers/STM32L0xx_HAL_Driver/Src/stm32l0xx_hal_rcc_ex.c ****   {
 2154              		.loc 1 1113 10 is_stmt 0 view .LVU574
 2155 0018 1907     		lsls	r1, r3, #28
 2156 001a 01D5     		bpl	.L186
1113:Drivers/STM32L0xx_HAL_Driver/Src/stm32l0xx_hal_rcc_ex.c ****   {
 2157              		.loc 1 1113 50 discriminator 1 view .LVU575
 2158 001c 1107     		lsls	r1, r2, #28
 2159 001e 24D4     		bmi	.L203
 2160              	.L186:
1124:Drivers/STM32L0xx_HAL_Driver/Src/stm32l0xx_hal_rcc_ex.c ****     {
 2161              		.loc 1 1124 5 is_stmt 1 view .LVU576
1124:Drivers/STM32L0xx_HAL_Driver/Src/stm32l0xx_hal_rcc_ex.c ****     {
 2162              		.loc 1 1124 7 is_stmt 0 view .LVU577
 2163 0020 5907     		lsls	r1, r3, #29
 2164 0022 1BD5     		bpl	.L182
1124:Drivers/STM32L0xx_HAL_Driver/Src/stm32l0xx_hal_rcc_ex.c ****     {
 2165              		.loc 1 1124 45 discriminator 1 view .LVU578
 2166 0024 5207     		lsls	r2, r2, #29
 2167 0026 19D5     		bpl	.L182
 2168              	.LVL120:
1126:Drivers/STM32L0xx_HAL_Driver/Src/stm32l0xx_hal_rcc_ex.c ****       {
 2169              		.loc 1 1126 7 is_stmt 1 view .LVU579
1126:Drivers/STM32L0xx_HAL_Driver/Src/stm32l0xx_hal_rcc_ex.c ****       {
 2170              		.loc 1 1126 19 is_stmt 0 view .LVU580
 2171 0028 8022     		movs	r2, #128
 2172 002a 5200     		lsls	r2, r2, #1
ARM GAS  /tmp/cc6QWq81.s 			page 63


 2173 002c 1800     		movs	r0, r3
 2174 002e 1040     		ands	r0, r2
1126:Drivers/STM32L0xx_HAL_Driver/Src/stm32l0xx_hal_rcc_ex.c ****       {
 2175              		.loc 1 1126 9 view .LVU581
 2176 0030 1342     		tst	r3, r2
 2177 0032 00D0     		beq	.L187
1128:Drivers/STM32L0xx_HAL_Driver/Src/stm32l0xx_hal_rcc_ex.c ****       }
 2178              		.loc 1 1128 18 view .LVU582
 2179 0034 0820     		movs	r0, #8
 2180              	.L187:
 2181              	.LVL121:
1130:Drivers/STM32L0xx_HAL_Driver/Src/stm32l0xx_hal_rcc_ex.c ****       {
 2182              		.loc 1 1130 7 is_stmt 1 view .LVU583
1130:Drivers/STM32L0xx_HAL_Driver/Src/stm32l0xx_hal_rcc_ex.c ****       {
 2183              		.loc 1 1130 9 is_stmt 0 view .LVU584
 2184 0036 9A05     		lsls	r2, r3, #22
 2185 0038 01D5     		bpl	.L188
1132:Drivers/STM32L0xx_HAL_Driver/Src/stm32l0xx_hal_rcc_ex.c ****       }
 2186              		.loc 1 1132 9 is_stmt 1 view .LVU585
1132:Drivers/STM32L0xx_HAL_Driver/Src/stm32l0xx_hal_rcc_ex.c ****       }
 2187              		.loc 1 1132 18 is_stmt 0 view .LVU586
 2188 003a 1022     		movs	r2, #16
 2189 003c 1043     		orrs	r0, r2
 2190              	.LVL122:
 2191              	.L188:
1134:Drivers/STM32L0xx_HAL_Driver/Src/stm32l0xx_hal_rcc_ex.c ****       {
 2192              		.loc 1 1134 7 is_stmt 1 view .LVU587
1134:Drivers/STM32L0xx_HAL_Driver/Src/stm32l0xx_hal_rcc_ex.c ****       {
 2193              		.loc 1 1134 9 is_stmt 0 view .LVU588
 2194 003e 5B05     		lsls	r3, r3, #21
 2195 0040 01D5     		bpl	.L189
 2196              	.LVL123:
1136:Drivers/STM32L0xx_HAL_Driver/Src/stm32l0xx_hal_rcc_ex.c ****       }
 2197              		.loc 1 1136 9 is_stmt 1 view .LVU589
1136:Drivers/STM32L0xx_HAL_Driver/Src/stm32l0xx_hal_rcc_ex.c ****       }
 2198              		.loc 1 1136 18 is_stmt 0 view .LVU590
 2199 0042 2023     		movs	r3, #32
 2200 0044 1843     		orrs	r0, r3
 2201              	.LVL124:
 2202              	.L189:
1140:Drivers/STM32L0xx_HAL_Driver/Src/stm32l0xx_hal_rcc_ex.c **** 
 2203              		.loc 1 1140 7 is_stmt 1 view .LVU591
 2204 0046 0C4B     		ldr	r3, .L204
 2205 0048 0422     		movs	r2, #4
 2206 004a DA60     		str	r2, [r3, #12]
1143:Drivers/STM32L0xx_HAL_Driver/Src/stm32l0xx_hal_rcc_ex.c ****     }
 2207              		.loc 1 1143 7 view .LVU592
 2208 004c FFF7FEFF 		bl	HAL_RCCEx_CRS_ErrorCallback
 2209              	.LVL125:
1146:Drivers/STM32L0xx_HAL_Driver/Src/stm32l0xx_hal_rcc_ex.c **** 
 2210              		.loc 1 1146 1 is_stmt 0 view .LVU593
 2211 0050 04E0     		b	.L182
 2212              	.LVL126:
 2213              	.L201:
1098:Drivers/STM32L0xx_HAL_Driver/Src/stm32l0xx_hal_rcc_ex.c **** 
 2214              		.loc 1 1098 5 is_stmt 1 view .LVU594
 2215 0052 094B     		ldr	r3, .L204
ARM GAS  /tmp/cc6QWq81.s 			page 64


 2216              	.LVL127:
1098:Drivers/STM32L0xx_HAL_Driver/Src/stm32l0xx_hal_rcc_ex.c **** 
 2217              		.loc 1 1098 5 is_stmt 0 view .LVU595
 2218 0054 0122     		movs	r2, #1
 2219              	.LVL128:
1098:Drivers/STM32L0xx_HAL_Driver/Src/stm32l0xx_hal_rcc_ex.c **** 
 2220              		.loc 1 1098 5 view .LVU596
 2221 0056 DA60     		str	r2, [r3, #12]
1101:Drivers/STM32L0xx_HAL_Driver/Src/stm32l0xx_hal_rcc_ex.c ****   }
 2222              		.loc 1 1101 5 is_stmt 1 view .LVU597
 2223 0058 FFF7FEFF 		bl	HAL_RCCEx_CRS_SyncOkCallback
 2224              	.LVL129:
 2225              	.L182:
1146:Drivers/STM32L0xx_HAL_Driver/Src/stm32l0xx_hal_rcc_ex.c **** 
 2226              		.loc 1 1146 1 is_stmt 0 view .LVU598
 2227              		@ sp needed
 2228 005c 10BD     		pop	{r4, pc}
 2229              	.LVL130:
 2230              	.L202:
1107:Drivers/STM32L0xx_HAL_Driver/Src/stm32l0xx_hal_rcc_ex.c **** 
 2231              		.loc 1 1107 5 is_stmt 1 view .LVU599
 2232 005e 064B     		ldr	r3, .L204
 2233              	.LVL131:
1107:Drivers/STM32L0xx_HAL_Driver/Src/stm32l0xx_hal_rcc_ex.c **** 
 2234              		.loc 1 1107 5 is_stmt 0 view .LVU600
 2235 0060 0222     		movs	r2, #2
 2236              	.LVL132:
1107:Drivers/STM32L0xx_HAL_Driver/Src/stm32l0xx_hal_rcc_ex.c **** 
 2237              		.loc 1 1107 5 view .LVU601
 2238 0062 DA60     		str	r2, [r3, #12]
1110:Drivers/STM32L0xx_HAL_Driver/Src/stm32l0xx_hal_rcc_ex.c ****   }
 2239              		.loc 1 1110 5 is_stmt 1 view .LVU602
 2240 0064 FFF7FEFF 		bl	HAL_RCCEx_CRS_SyncWarnCallback
 2241              	.LVL133:
 2242 0068 F8E7     		b	.L182
 2243              	.LVL134:
 2244              	.L203:
1116:Drivers/STM32L0xx_HAL_Driver/Src/stm32l0xx_hal_rcc_ex.c **** 
 2245              		.loc 1 1116 5 view .LVU603
 2246 006a 034B     		ldr	r3, .L204
 2247              	.LVL135:
1116:Drivers/STM32L0xx_HAL_Driver/Src/stm32l0xx_hal_rcc_ex.c **** 
 2248              		.loc 1 1116 5 is_stmt 0 view .LVU604
 2249 006c 0822     		movs	r2, #8
 2250              	.LVL136:
1116:Drivers/STM32L0xx_HAL_Driver/Src/stm32l0xx_hal_rcc_ex.c **** 
 2251              		.loc 1 1116 5 view .LVU605
 2252 006e DA60     		str	r2, [r3, #12]
1119:Drivers/STM32L0xx_HAL_Driver/Src/stm32l0xx_hal_rcc_ex.c ****   }
 2253              		.loc 1 1119 5 is_stmt 1 view .LVU606
 2254 0070 FFF7FEFF 		bl	HAL_RCCEx_CRS_ExpectedSyncCallback
 2255              	.LVL137:
 2256 0074 F2E7     		b	.L182
 2257              	.L205:
 2258 0076 C046     		.align	2
 2259              	.L204:
 2260 0078 006C0040 		.word	1073769472
ARM GAS  /tmp/cc6QWq81.s 			page 65


 2261              		.cfi_endproc
 2262              	.LFE61:
 2264              		.text
 2265              	.Letext0:
 2266              		.file 2 "/opt/st/stm32cubeclt/GNU-tools-for-STM32/arm-none-eabi/include/machine/_default_types.h"
 2267              		.file 3 "/opt/st/stm32cubeclt/GNU-tools-for-STM32/arm-none-eabi/include/sys/_stdint.h"
 2268              		.file 4 "Drivers/CMSIS/Device/ST/STM32L0xx/Include/stm32l053xx.h"
 2269              		.file 5 "Drivers/CMSIS/Device/ST/STM32L0xx/Include/stm32l0xx.h"
 2270              		.file 6 "Drivers/STM32L0xx_HAL_Driver/Inc/stm32l0xx_hal_def.h"
 2271              		.file 7 "Drivers/STM32L0xx_HAL_Driver/Inc/stm32l0xx_hal_rcc_ex.h"
 2272              		.file 8 "Drivers/STM32L0xx_HAL_Driver/Inc/stm32l0xx_hal_rcc.h"
 2273              		.file 9 "Drivers/STM32L0xx_HAL_Driver/Inc/stm32l0xx_hal.h"
 2274              		.file 10 "Drivers/CMSIS/Device/ST/STM32L0xx/Include/system_stm32l0xx.h"
ARM GAS  /tmp/cc6QWq81.s 			page 66

